
kernel.elf:	file format elf32-littleriscv

Disassembly of section .text:

80200000 <boot>:
80200000: 17                           	popl	%ss
80200001: 11 02                        	adcl	%eax, (%edx)
80200003: 00 13                        	addb	%dl, (%ebx)
80200005: 01 41 ad                     	addl	%eax, -0x53(%ecx)
80200008: ef                           	outl	%eax, %dx
80200009: 00 50 1e                     	addb	%dl, 0x1e(%eax)

8020000c <print_string>:
8020000c: aa                           	stosb	%al, %es:(%edi)
8020000d: 85 03                        	testl	%eax, (%ebx)
8020000f: 45                           	incl	%ebp
80200010: 05 00 0d c5 41               	addl	$0x41c50d00, %eax       # imm = 0x41C50D00
80200015: 11 06                        	adcl	%eax, (%esi)
80200017: c6 22                        	<unknown>
80200019: c4 13                        	lesl	(%ebx), %edx
8020001b: 84 15 00 85 48 81            	testb	%dl, -0x7eb77b00
80200021: 45                           	incl	%ebp
80200022: 01 46 81                     	addl	%eax, -0x7f(%esi)
80200025: 46                           	incl	%esi
80200026: 01 47 81                     	addl	%eax, -0x7f(%edi)
80200029: 47                           	incl	%edi
8020002a: 01 48 31                     	addl	%ecx, 0x31(%eax)
8020002d: 2a 03                        	subb	(%ebx), %al
8020002f: 45                           	incl	%ebp
80200030: 04 00                        	addb	$0x0, %al
80200032: 05 04 6d f5 b2               	addl	$0xb2f56d04, %eax       # imm = 0xB2F56D04
80200037: 40                           	incl	%eax
80200038: 22 44 41 01                  	andb	0x1(%ecx,%eax,2), %al
8020003c: 82 80 85 48 81 45 01         	addb	$0x1, 0x45814885(%eax)

8020003e <putchar>:
8020003e: 85 48 81                     	testl	%ecx, -0x7f(%eax)
80200041: 45                           	incl	%ebp
80200042: 01 46 81                     	addl	%eax, -0x7f(%esi)
80200045: 46                           	incl	%esi
80200046: 01 47 81                     	addl	%eax, -0x7f(%edi)
80200049: 47                           	incl	%edi
8020004a: 01 48 f5                     	addl	%ecx, -0xb(%eax)
8020004d: a8 01                        	testb	$0x1, %al

8020004e <print_hex>:
8020004e: 01 11                        	addl	%edx, (%ecx)
80200050: 06                           	pushl	%es
80200051: ce                           	into
80200052: 22 cc                        	andb	%ah, %cl
80200054: 93                           	xchgl	%ebx, %eax
80200055: 75 f5                        	jne	0x8020004c <putchar+0xe>
80200057: 00 37                        	addb	%dh, (%edi)
80200059: 16                           	pushl	%ss
8020005a: 20 80 13 06 36 ac            	andb	%al, -0x53c9f9ed(%eax)
80200060: b2 95                        	movb	$-0x6b, %dl
80200062: 83 c5 05                     	addl	$0x5, %ebp
80200065: 00 23                        	addb	%ah, (%ebx)
80200067: 0b b1 00 93 15 85            	orl	-0x7aea6d00(%ecx), %esi
8020006d: 01 f1                        	addl	%esi, %ecx
8020006f: 81 b2 95 83 c5 05 00 93 16 45	xorl	$0x45169300, 0x5c58395(%edx) # imm = 0x45169300
80200079: 01 f1                        	addl	%esi, %ecx
8020007b: 82 b2 96 83 c6 06 00         	xorb	$0x0, 0x6c68396(%edx)
80200082: 13 17                        	adcl	(%edi), %edx
80200084: 05 01 71 83 32               	addl	$0x32837101, %eax       # imm = 0x32837101
80200089: 97                           	xchgl	%edi, %eax
8020008a: 03 47 07                     	addl	0x7(%edi), %eax
8020008d: 00 93 17 c5 00 f1            	addb	%dl, -0xeff3ae9(%ebx)
80200093: 83 b2 97 83 c7 07 00         	xorl	$0x0, 0x7c78397(%edx)
8020009a: a3 0a b1 00 23               	movl	%eax, 0x2300b10a
8020009f: 0a d1                        	orb	%cl, %dl
802000a1: 00 a3 09 e1 00 23            	addb	%ah, 0x2300e109(%ebx)
802000a7: 09 f1                        	orl	%esi, %ecx
802000a9: 00 93 15 85 00 f1            	addb	%dl, -0xeff7aeb(%ebx)
802000af: 81 b2 95 93 16 45 00 f1 82 b2	xorl	$0xb282f100, 0x45169395(%edx) # imm = 0xB282F100
802000b9: 96                           	xchgl	%esi, %eax
802000ba: 71 81                        	jno	0x8020003d <print_string+0x31>
802000bc: 32 95 83 c5 05 00            	xorb	0x5c583(%ebp), %dl
802000c2: 03 c6                        	addl	%esi, %eax
802000c4: 06                           	pushl	%es
802000c5: 00 03                        	addb	%al, (%ebx)
802000c7: 45                           	incl	%ebp
802000c8: 05 00 a3 0b 01               	addl	$0x10ba300, %eax        # imm = 0x10BA300
802000cd: 00 a3 08 b1 00 23            	addb	%ah, 0x2300b108(%ebx)
802000d3: 08 c1                        	orb	%al, %cl
802000d5: 00 a3 07 a1 00 13            	addb	%ah, 0x1300a107(%ebx)
802000db: 05 00 03 23 07               	addl	$0x7230300, %eax        # imm = 0x7230300
802000e0: a1 00 a3 06 a1               	movl	0xa106a300, %eax
802000e5: 00 23                        	addb	%ah, (%ebx)
802000e7: 06                           	pushl	%es
802000e8: a1 00 a3 05 a1               	movl	0xa105a300, %eax
802000ed: 00 23                        	addb	%ah, (%ebx)
802000ef: 05 a1 00 a3 04               	addl	$0x4a300a1, %eax        # imm = 0x4A300A1
802000f4: a1 00 20 00 23               	movl	0x23002000, %eax
802000f9: 04 a1                        	addb	$-0x5f, %al
802000fb: 00 13                        	addb	%dl, (%ebx)
802000fd: 05 00 03 85 48               	addl	$0x48850300, %eax       # imm = 0x48850300
80200102: 81 45 01 46 81 46 01         	addl	$0x1468146, 0x1(%ebp)   # imm = 0x1468146
80200109: 47                           	incl	%edi
8020010a: 81 47 01 48 2d 28 13         	addl	$0x13282d48, 0x1(%edi)  # imm = 0x13282D48
80200111: 05 80 07 85 48               	addl	$0x48850780, %eax       # imm = 0x48850780
80200116: 81 45 01 46 81 46 01         	addl	$0x1468146, 0x1(%ebp)   # imm = 0x1468146
8020011d: 47                           	incl	%edi
8020011e: 81 47 01 48 1d 20 13         	addl	$0x13201d48, 0x1(%edi)  # imm = 0x13201D48
80200125: 05 00 03 85 48               	addl	$0x48850300, %eax       # imm = 0x48850300
8020012a: 81 45 01 46 81 46 01         	addl	$0x1468146, 0x1(%ebp)   # imm = 0x1468146
80200131: 47                           	incl	%edi
80200132: 81 47 01 48 09 28 03         	addl	$0x3280948, 0x1(%edi)   # imm = 0x3280948
80200139: 45                           	incl	%ebp
8020013a: 04 00                        	addb	$0x0, %al
8020013c: 05 04 6d f5 f2               	addl	$0xf2f56d04, %eax       # imm = 0xF2F56D04
80200141: 40                           	incl	%eax
80200142: 62 44 05 61                  	bound	%eax, 0x61(%ebp,%eax)
80200146: 82 80 1d 71 86 ce a2         	addb	$-0x5e, -0x31798ee3(%eax)

80200148 <sbi_call>:
80200148: 1d 71 86 ce a2               	sbbl	$0xa2ce8671, %eax       # imm = 0xA2CE8671
8020014d: cc                           	int3
8020014e: a6                           	cmpsb	%es:(%edi), (%esi)
8020014f: ca ca c8                     	lretl	$-0x3736                # imm = 0xC8CA
80200152: ce                           	into
80200153: c6 d2                        	<unknown>
80200155: c4 d6 c2                     	<unknown>
80200158: da c0                        	fcmovb	%st(0), %st
8020015a: 5e                           	popl	%esi
8020015b: de 62 dc                     	fisubs	-0x24(%edx)
8020015e: 66 da 6a d8                  	fisubrl	-0x28(%edx)
80200162: 6e                           	outsb	(%esi), %dx
80200163: d6                           	salc
80200164: 46                           	incl	%esi
80200165: 8b c2                        	movl	%edx, %eax
80200167: 8b 3a                        	movl	(%edx), %edi
80200169: 8a b6 8a b2 89 2e            	movb	0x2e89b28a(%esi), %dh
8020016f: 89 aa 84 b7 1d 20            	movl	%ebp, 0x201db784(%edx)
80200175: 80 93 8d 4d a7 13 85         	adcb	$-0x7b, 0x13a74d8d(%ebx)
8020017c: 1d 00 2a c8 c5               	sbbl	$0xc5c82a00, %eax       # imm = 0xC5C82A00
80200181: 0d 37 1c 20 80               	orl	$0x80201c37, %eax       # imm = 0x80201C37
80200186: 13 0c 3c                     	adcl	(%esp,%edi), %ecx
80200189: ac                           	lodsb	(%esi), %al
8020018a: b7 1c                        	movb	$0x1c, %bh
8020018c: 20 80 93 8c 9c aa            	andb	%al, -0x5563736d(%eax)
80200192: 13 85 1c 00 2a c6            	adcl	-0x39d5ffe4(%ebp), %eax
80200198: 3e ca 42 44                  	lretl	$0x4442                 # imm = 0x4442
8020019c: 13 05 30 07 85 48            	adcl	0x48850730, %eax
802001a2: 81 45 01 46 81 46 01         	addl	$0x1468146, 0x1(%ebp)   # imm = 0x1468146
802001a9: 47                           	incl	%edi
802001aa: 81 47 01 48 69 3f 03         	addl	$0x33f6948, 0x1(%edi)   # imm = 0x33F6948
802001b1: 45                           	incl	%ebp
802001b2: 04 00                        	addb	$0x0, %al
802001b4: 05 04 e3 15 b4               	addl	$0xb415e304, %eax       # imm = 0xB415E304
802001b9: ff 13                        	calll	*(%ebx)
802001bb: f5                           	cmc
802001bc: fb                           	sti
802001bd: 00 62 95                     	addb	%ah, -0x6b(%edx)
802001c0: 03 45 05                     	addl	0x5(%ebp), %eax
802001c3: 00 23                        	addb	%ah, (%ebx)
802001c5: 05 a1 02 13 95               	addl	$0x951302a1, %eax       # imm = 0x951302A1
802001ca: 8b 01                        	movl	(%ecx), %eax
802001cc: 71 81                        	jno	0x8020014f <sbi_call+0x7>
802001ce: 62 95 03 45 05 00            	bound	%edx, 0x54503(%ebp)
802001d4: 93                           	xchgl	%ebx, %eax
802001d5: 95                           	xchgl	%ebp, %eax
802001d6: 4b                           	decl	%ebx
802001d7: 01 f1                        	addl	%esi, %ecx
802001d9: 81 e2 95 83 c5 05            	andl	$0x5c58395, %edx        # imm = 0x5C58395
802001df: 00 13                        	addb	%dl, (%ebx)
802001e1: 96                           	xchgl	%esi, %eax
802001e2: 0b 01                        	orl	(%ecx), %eax
802001e4: 71 82                        	jno	0x80200168 <sbi_call+0x20>
802001e6: 62 96 03 46 06 00            	bound	%edx, 0x64603(%esi)
802001ec: 93                           	xchgl	%ebx, %eax
802001ed: 96                           	xchgl	%esi, %eax
802001ee: cb                           	lretl
802001ef: 00 f1                        	addb	%dh, %cl
802001f1: 82 e2 96                     	andb	$-0x6a, %dl
802001f4: 83 c6 06                     	addl	$0x6, %esi
802001f7: 00 a3 04 a1 02 23            	addb	%ah, 0x2302a104(%ebx)
802001fd: 04 b1                        	addb	$-0x4f, %al
802001ff: 02 a3 03 c1 02 23            	addb	0x2302c103(%ebx), %ah
80200205: 03 d1                        	addl	%ecx, %edx
80200207: 02 13                        	addb	(%ebx), %dl
80200209: 95                           	xchgl	%ebp, %eax
8020020a: 8b 00                        	movl	(%eax), %eax
8020020c: 71 81                        	jno	0x8020018f <sbi_call+0x47>
8020020e: 62 95 03 45 05 00            	bound	%edx, 0x54503(%ebp)
80200214: 93                           	xchgl	%ebx, %eax
80200215: 95                           	xchgl	%ebp, %eax
80200216: 4b                           	decl	%ebx
80200217: 00 f1                        	addb	%dh, %cl
80200219: 81 e2 95 83 c5 05            	andl	$0x5c58395, %edx        # imm = 0x5C58395
8020021f: 00 13                        	addb	%dl, (%ebx)
80200221: d6                           	salc
80200222: cb                           	lretl
80200223: 01 62 96                     	addl	%esp, -0x6a(%edx)
80200226: 03 46 06                     	addl	0x6(%esi), %eax
80200229: 00 a3 02 a1 02 23            	addb	%ah, 0x2302a102(%ebx)
8020022f: 02 b1 02 a3 05 01            	addb	0x105a302(%ecx), %dh
80200235: 02 a3 01 c1 02 13            	addb	0x1302c101(%ebx), %ah
8020023b: 05 00 03 23 01               	addl	$0x1230300, %eax        # imm = 0x1230300
80200240: a1 02 a3 00 a1               	movl	0xa100a302, %eax
80200245: 02 23                        	addb	(%ebx), %ah
80200247: 00 a1 02 a3 0f a1            	addb	%ah, -0x5ef05cfe(%ecx)
8020024d: 00 23                        	addb	%ah, (%ebx)
8020024f: 0f a1                        	popl	%fs
80200251: 00 a3 0e a1 00 23            	addb	%ah, 0x2300a10e(%ebx)
80200257: 0e                           	pushl	%cs
80200258: a1 00 13 05 00               	movl	0x51300, %eax
8020025d: 03 85 48 81 45 01            	addl	0x1458148(%ebp), %eax
80200263: 46                           	incl	%esi
80200264: 81 46 01 47 81 47 01         	addl	$0x1478147, 0x1(%esi)   # imm = 0x1478147
8020026b: 48                           	decl	%eax
8020026c: f1                           	<unknown>
8020026d: 3d 13 05 80 07               	cmpl	$0x7800513, %eax        # imm = 0x7800513
80200272: 85 48 81                     	testl	%ecx, -0x7f(%eax)
80200275: 45                           	incl	%ebp
80200276: 01 46 81                     	addl	%eax, -0x7f(%esi)
80200279: 46                           	incl	%esi
8020027a: 01 47 81                     	addl	%eax, -0x7f(%edi)
8020027d: 47                           	incl	%edi
8020027e: 01 48 e1                     	addl	%ecx, -0x1f(%eax)
80200281: 35 13 05 00 03               	xorl	$0x3000513, %eax        # imm = 0x3000513
80200286: 60                           	pushal
80200287: 08 85 48 81 45 01            	orb	%al, 0x1458148(%ebp)
8020028d: 46                           	incl	%esi
8020028e: 81 46 01 47 81 47 01         	addl	$0x1478147, 0x1(%esi)   # imm = 0x1478147
80200295: 48                           	decl	%eax
80200296: 4d                           	decl	%ebp
80200297: 3d 03 45 04 00               	cmpl	$0x44503, %eax          # imm = 0x44503
8020029c: 05 04 6d f5 13               	addl	$0x13f56d04, %eax       # imm = 0x13F56D04
802002a1: 05 c0 02 85 48               	addl	$0x488502c0, %eax       # imm = 0x488502C0
802002a6: 81 45 01 46 81 46 01         	addl	$0x1468146, 0x1(%ebp)   # imm = 0x1468146
802002ad: 47                           	incl	%edi
802002ae: 81 47 01 48 59 3d 13         	addl	$0x133d5948, 0x1(%edi)  # imm = 0x133D5948
802002b5: 05 00 02 85 48               	addl	$0x48850200, %eax       # imm = 0x48850200
802002ba: 81 45 01 46 81 46 01         	addl	$0x1468146, 0x1(%ebp)   # imm = 0x1468146
802002c1: 47                           	incl	%edi
802002c2: 81 47 01 48 49 35 13         	addl	$0x13354948, 0x1(%edi)  # imm = 0x13354948
802002c9: 05 50 06 85 48               	addl	$0x48850650, %eax       # imm = 0x48850650
802002ce: 81 45 01 46 81 46 01         	addl	$0x1468146, 0x1(%ebp)   # imm = 0x1468146
802002d5: 47                           	incl	%edi
802002d6: 81 47 01 48 bd 35 13         	addl	$0x1335bd48, 0x1(%edi)  # imm = 0x1335BD48
802002dd: 05 90 06 85 48               	addl	$0x48850690, %eax       # imm = 0x48850690
802002e2: 81 45 01 46 81 46 01         	addl	$0x1468146, 0x1(%ebp)   # imm = 0x1468146
802002e9: 47                           	incl	%edi
802002ea: 81 47 01 48 a9 3d 13         	addl	$0x133da948, 0x1(%edi)  # imm = 0x133DA948
802002f1: 05 40 06 85 48               	addl	$0x48850640, %eax       # imm = 0x48850640
802002f6: 81 45 01 46 81 46 01         	addl	$0x1468146, 0x1(%ebp)   # imm = 0x1468146
802002fd: 47                           	incl	%edi
802002fe: 81 47 01 48 99 35 13         	addl	$0x13359948, 0x1(%edi)  # imm = 0x13359948
80200305: 05 00 02 85 48               	addl	$0x48850200, %eax       # imm = 0x48850200
8020030a: 81 45 01 46 81 46 01         	addl	$0x1468146, 0x1(%ebp)   # imm = 0x1468146
80200311: 47                           	incl	%edi
80200312: 81 47 01 48 0d 3d 13         	addl	$0x133d0d48, 0x1(%edi)  # imm = 0x133D0D48
80200319: 05 d0 03 85 48               	addl	$0x488503d0, %eax       # imm = 0x488503D0
8020031e: 81 45 01 46 81 46 01         	addl	$0x1468146, 0x1(%ebp)   # imm = 0x1468146
80200325: 47                           	incl	%edi
80200326: 81 47 01 48 39 3d 13         	addl	$0x133d3948, 0x1(%edi)  # imm = 0x133D3948
8020032d: 05 00 02 85 48               	addl	$0x48850200, %eax       # imm = 0x48850200
80200332: 81 45 01 46 81 46 01         	addl	$0x1468146, 0x1(%ebp)   # imm = 0x1468146
80200339: 47                           	incl	%edi
8020033a: 81 47 01 48 29 35 13         	addl	$0x13352948, 0x1(%edi)  # imm = 0x13352948
80200341: 75 fb                        	jne	0x8020033e <sbi_call+0x1f6>
80200343: 00 62 95                     	addb	%ah, -0x6b(%edx)
80200346: 03 45 05                     	addl	0x5(%ebp), %eax
80200349: 00 23                        	addb	%ah, (%ebx)
8020034b: 05 a1 02 13 15               	addl	$0x151302a1, %eax       # imm = 0x151302A1
80200350: 8b 01                        	movl	(%ecx), %eax
80200352: 71 81                        	jno	0x802002d5 <sbi_call+0x18d>
80200354: 62 95 03 45 05 00            	bound	%edx, 0x54503(%ebp)
8020035a: 93                           	xchgl	%ebx, %eax
8020035b: 15 4b 01 f1 81               	adcl	$0x81f1014b, %eax       # imm = 0x81F1014B
80200360: e2 95                        	loop	0x802002f7 <sbi_call+0x1af>
80200362: 83 c5 05                     	addl	$0x5, %ebp
80200365: 00 13                        	addb	%dl, (%ebx)
80200367: 16                           	pushl	%ss
80200368: 0b 01                        	orl	(%ecx), %eax
8020036a: 71 82                        	jno	0x802002ee <sbi_call+0x1a6>
8020036c: 62 96 03 46 06 00            	bound	%edx, 0x64603(%esi)
80200372: 93                           	xchgl	%ebx, %eax
80200373: 16                           	pushl	%ss
80200374: cb                           	lretl
80200375: 00 f1                        	addb	%dh, %cl
80200377: 82 e2 96                     	andb	$-0x6a, %dl
8020037a: 83 c6 06                     	addl	$0x6, %esi
8020037d: 00 a3 04 a1 02 23            	addb	%ah, 0x2302a104(%ebx)
80200383: 04 b1                        	addb	$-0x4f, %al
80200385: 02 a3 03 c1 02 23            	addb	0x2302c103(%ebx), %ah
8020038b: 03 d1                        	addl	%ecx, %edx
8020038d: 02 13                        	addb	(%ebx), %dl
8020038f: 15 8b 00 71 81               	adcl	$0x8171008b, %eax       # imm = 0x8171008B
80200394: 62 95 03 45 05 00            	bound	%edx, 0x54503(%ebp)
8020039a: 93                           	xchgl	%ebx, %eax
8020039b: 15 4b 00 f1 81               	adcl	$0x81f1004b, %eax       # imm = 0x81F1004B
802003a0: e2 95                        	loop	0x80200337 <sbi_call+0x1ef>
802003a2: 83 c5 05                     	addl	$0x5, %ebp
802003a5: 00 13                        	addb	%dl, (%ebx)
802003a7: 56                           	pushl	%esi
802003a8: cb                           	lretl
802003a9: 01 62 96                     	addl	%esp, -0x6a(%edx)
802003ac: 03 46 06                     	addl	0x6(%esi), %eax
802003af: 00 a3 02 a1 02 23            	addb	%ah, 0x2302a102(%ebx)
802003b5: 02 b1 02 a3 05 01            	addb	0x105a302(%ecx), %dh
802003bb: 02 a3 01 c1 02 13            	addb	0x1302c101(%ebx), %ah
802003c1: 05 00 03 23 01               	addl	$0x1230300, %eax        # imm = 0x1230300
802003c6: a1 02 a3 00 a1               	movl	0xa100a302, %eax
802003cb: 02 23                        	addb	(%ebx), %ah
802003cd: 00 a1 02 a3 0f a1            	addb	%ah, -0x5ef05cfe(%ecx)
802003d3: 00 23                        	addb	%ah, (%ebx)
802003d5: 0f a1                        	popl	%fs
802003d7: 00 a3 0e a1 00 23            	addb	%ah, 0x2300a10e(%ebx)
802003dd: 0e                           	pushl	%cs
802003de: a1 00 13 05 00               	movl	0x51300, %eax
802003e3: 03 85 48 81 45 01            	addl	0x1458148(%ebp), %eax
802003e9: 46                           	incl	%esi
802003ea: 81 46 01 47 81 47 01         	addl	$0x1478147, 0x1(%esi)   # imm = 0x1478147
802003f1: 48                           	decl	%eax
802003f2: 99                           	cltd
802003f3: 3b 13                        	cmpl	(%ebx), %edx
802003f5: 05 80 07 85 48               	addl	$0x48850780, %eax       # imm = 0x48850780
802003fa: 81 45 01 46 81 46 01         	addl	$0x1468146, 0x1(%ebp)   # imm = 0x1468146
80200401: 47                           	incl	%edi
80200402: 81 47 01 48 89 33 13         	addl	$0x13338948, 0x1(%edi)  # imm = 0x13338948
80200409: 05 00 03 13 0d               	addl	$0xd130300, %eax        # imm = 0xD130300
8020040e: c1 01 85                     	roll	$0x85, (%ecx)
80200411: 48                           	decl	%eax
80200412: 81 45 01 46 81 46 01         	addl	$0x1468146, 0x1(%ebp)   # imm = 0x1468146
80200419: 47                           	incl	%edi
8020041a: 81 47 01 48 2d 33 03         	addl	$0x3332d48, 0x1(%edi)   # imm = 0x3332D48
80200421: 45                           	incl	%ebp
80200422: 0d 00 05 0d 6d               	orl	$0x6d0d0500, %eax       # imm = 0x6D0D0500
80200427: f5                           	cmc
80200428: 13 05 c0 02 85 48            	adcl	0x488502c0, %eax
8020042e: 81 45 01 46 81 46 01         	addl	$0x1468146, 0x1(%ebp)   # imm = 0x1468146
80200435: 47                           	incl	%edi
80200436: 81 47 01 48 39 33 13         	addl	$0x13333948, 0x1(%edi)  # imm = 0x13333948
8020043d: 05 00 02 85 48               	addl	$0x48850200, %eax       # imm = 0x48850200
80200442: 81 45 01 46 81 46 01         	addl	$0x1468146, 0x1(%ebp)   # imm = 0x1468146
80200449: 47                           	incl	%edi
8020044a: 81 47 01 48 ed 39 13         	addl	$0x1339ed48, 0x1(%edi)  # imm = 0x1339ED48
80200451: 05 10 06 85 48               	addl	$0x48850610, %eax       # imm = 0x48850610
80200456: 81 45 01 46 81 46 01         	addl	$0x1468146, 0x1(%ebp)   # imm = 0x1468146
8020045d: 47                           	incl	%edi
8020045e: 81 47 01 48 dd 31 13         	addl	$0x1331dd48, 0x1(%edi)  # imm = 0x1331DD48
80200465: 05 20 07 85 48               	addl	$0x48850720, %eax       # imm = 0x48850720
8020046a: 81 45 01 46 81 46 01         	addl	$0x1468146, 0x1(%ebp)   # imm = 0x1468146
80200471: 47                           	incl	%edi
80200472: 81 47 01 48 c9 39 13         	addl	$0x1339c948, 0x1(%edi)  # imm = 0x1339C948
80200479: 05 70 06 85 48               	addl	$0x48850670, %eax       # imm = 0x48850670
8020047e: 81 45 01 46 81 46 01         	addl	$0x1468146, 0x1(%ebp)   # imm = 0x1468146
80200485: 47                           	incl	%edi
80200486: 81 47 01 48 7d 39 13         	addl	$0x13397d48, 0x1(%edi)  # imm = 0x13397D48
8020048d: 05 30 07 85 48               	addl	$0x48850730, %eax       # imm = 0x48850730
80200492: 81 45 01 46 81 46 01         	addl	$0x1468146, 0x1(%ebp)   # imm = 0x1468146
80200499: 47                           	incl	%edi
8020049a: 81 47 01 48 6d 31 13         	addl	$0x13316d48, 0x1(%edi)  # imm = 0x13316D48
802004a1: 05 00 02 85 48               	addl	$0x48850200, %eax       # imm = 0x48850200
802004a6: 81 45 01 46 81 46 01         	addl	$0x1468146, 0x1(%ebp)   # imm = 0x1468146
802004ad: 47                           	incl	%edi
802004ae: 81 47 01 48 59 39 13         	addl	$0x13395948, 0x1(%edi)  # imm = 0x13395948
802004b5: 05 d0 03 85 48               	addl	$0x488503d0, %eax       # imm = 0x488503D0
802004ba: 81 45 01 46 81 46 01         	addl	$0x1468146, 0x1(%ebp)   # imm = 0x1468146
802004c1: 47                           	incl	%edi
802004c2: 81 47 01 48 49 31 13         	addl	$0x13314948, 0x1(%edi)  # imm = 0x13314948
802004c9: 05 00 02 85 48               	addl	$0x48850200, %eax       # imm = 0x48850200
802004ce: 81 45 01 46 81 46 01         	addl	$0x1468146, 0x1(%ebp)   # imm = 0x1468146
802004d5: 47                           	incl	%edi
802004d6: 81 47 01 48 bd 31 13         	addl	$0x1331bd48, 0x1(%edi)  # imm = 0x1331BD48
802004dd: f5                           	cmc
802004de: f4                           	hlt
802004df: 00 62 95                     	addb	%ah, -0x6b(%edx)
802004e2: 03 45 05                     	addl	0x5(%ebp), %eax
802004e5: 00 23                        	addb	%ah, (%ebx)
802004e7: 05 a1 02 13 95               	addl	$0x951302a1, %eax       # imm = 0x951302A1
802004ec: 84 01                        	testb	%al, (%ecx)
802004ee: 71 81                        	jno	0x80200471 <sbi_call+0x329>
802004f0: 62 95 03 45 05 00            	bound	%edx, 0x54503(%ebp)
802004f6: 93                           	xchgl	%ebx, %eax
802004f7: 95                           	xchgl	%ebp, %eax
802004f8: 44                           	incl	%esp
802004f9: 01 f1                        	addl	%esi, %ecx
802004fb: 81 e2 95 83 c5 05            	andl	$0x5c58395, %edx        # imm = 0x5C58395
80200501: 00 13                        	addb	%dl, (%ebx)
80200503: 96                           	xchgl	%esi, %eax
80200504: 04 01                        	addb	$0x1, %al
80200506: 71 82                        	jno	0x8020048a <sbi_call+0x342>
80200508: 62 96 03 46 06 00            	bound	%edx, 0x64603(%esi)
8020050e: 93                           	xchgl	%ebx, %eax
8020050f: 96                           	xchgl	%esi, %eax
80200510: c4 00                        	lesl	(%eax), %eax
80200512: f1                           	<unknown>
80200513: 82 e2 96                     	andb	$-0x6a, %dl
80200516: 83 c6 06                     	addl	$0x6, %esi
80200519: 00 a3 04 a1 02 23            	addb	%ah, 0x2302a104(%ebx)
8020051f: 04 b1                        	addb	$-0x4f, %al
80200521: 02 a3 03 c1 02 23            	addb	0x2302c103(%ebx), %ah
80200527: 03 d1                        	addl	%ecx, %edx
80200529: 02 13                        	addb	(%ebx), %dl
8020052b: 95                           	xchgl	%ebp, %eax
8020052c: 84 00                        	testb	%al, (%eax)
8020052e: 71 81                        	jno	0x802004b1 <sbi_call+0x369>
80200530: 62 95 03 45 05 00            	bound	%edx, 0x54503(%ebp)
80200536: 93                           	xchgl	%ebx, %eax
80200537: 95                           	xchgl	%ebp, %eax
80200538: 44                           	incl	%esp
80200539: 00 f1                        	addb	%dh, %cl
8020053b: 81 e2 95 83 c5 05            	andl	$0x5c58395, %edx        # imm = 0x5C58395
80200541: 00 13                        	addb	%dl, (%ebx)
80200543: d6                           	salc
80200544: c4 01                        	lesl	(%ecx), %eax
80200546: 62 96 03 46 06 00            	bound	%edx, 0x64603(%esi)
8020054c: a3 02 a1 02 23               	movl	%eax, 0x2302a102
80200551: 02 b1 02 a3 05 01            	addb	0x105a302(%ecx), %dh
80200557: 02 a3 01 c1 02 13            	addb	0x1302c101(%ebx), %ah
8020055d: 05 00 03 23 01               	addl	$0x1230300, %eax        # imm = 0x1230300
80200562: a1 02 a3 00 a1               	movl	0xa100a302, %eax
80200567: 02 23                        	addb	(%ebx), %ah
80200569: 00 a1 02 a3 0f a1            	addb	%ah, -0x5ef05cfe(%ecx)
8020056f: 00 23                        	addb	%ah, (%ebx)
80200571: 0f a1                        	popl	%fs
80200573: 00 a3 0e a1 00 23            	addb	%ah, 0x2300a10e(%ebx)
80200579: 0e                           	pushl	%cs
8020057a: a1 00 13 05 00               	movl	0x51300, %eax
8020057f: 03 85 48 81 45 01            	addl	0x1458148(%ebp), %eax
80200585: 46                           	incl	%esi
80200586: 81 46 01 47 81 47 01         	addl	$0x1478147, 0x1(%esi)   # imm = 0x1478147
8020058d: 48                           	decl	%eax
8020058e: 6d                           	insl	%dx, %es:(%edi)
8020058f: 3e 13 05 80 07 85 48         	adcl	%ds:0x48850780, %eax
80200596: 81 45 01 46 81 46 01         	addl	$0x1468146, 0x1(%ebp)   # imm = 0x1468146
8020059d: 47                           	incl	%edi
8020059e: 81 47 01 48 5d 36 13         	addl	$0x13365d48, 0x1(%edi)  # imm = 0x13365D48
802005a5: 05 00 03 60 08               	addl	$0x8600300, %eax        # imm = 0x8600300
802005aa: 85 48 81                     	testl	%ecx, -0x7f(%eax)
802005ad: 45                           	incl	%ebp
802005ae: 01 46 81                     	addl	%eax, -0x7f(%esi)
802005b1: 46                           	incl	%esi
802005b2: 01 47 81                     	addl	%eax, -0x7f(%edi)
802005b5: 47                           	incl	%edi
802005b6: 01 48 41                     	addl	%ecx, 0x41(%eax)
802005b9: 3e 03 45 04                  	addl	%ds:0x4(%ebp), %eax
802005bd: 00 05 04 6d f5 13            	addb	%al, 0x13f56d04
802005c3: 05 c0 02 85 48               	addl	$0x488502c0, %eax       # imm = 0x488502C0
802005c8: 81 45 01 46 81 46 01         	addl	$0x1468146, 0x1(%ebp)   # imm = 0x1468146
802005cf: 47                           	incl	%edi
802005d0: 81 47 01 48 95 3e 13         	addl	$0x133e9548, 0x1(%edi)  # imm = 0x133E9548
802005d7: 05 00 02 85 48               	addl	$0x48850200, %eax       # imm = 0x48850200
802005dc: 81 45 01 46 81 46 01         	addl	$0x1468146, 0x1(%ebp)   # imm = 0x1468146
802005e3: 47                           	incl	%edi
802005e4: 81 47 01 48 85 36 13         	addl	$0x13368548, 0x1(%edi)  # imm = 0x13368548
802005eb: 75 f9                        	jne	0x802005e6 <sbi_call+0x49e>
802005ed: 00 62 95                     	addb	%ah, -0x6b(%edx)
802005f0: 03 45 05                     	addl	0x5(%ebp), %eax
802005f3: 00 23                        	addb	%ah, (%ebx)
802005f5: 05 a1 02 13 15               	addl	$0x151302a1, %eax       # imm = 0x151302A1
802005fa: 89 01                        	movl	%eax, (%ecx)
802005fc: 71 81                        	jno	0x8020057f <sbi_call+0x437>
802005fe: 62 95 03 45 05 00            	bound	%edx, 0x54503(%ebp)
80200604: 93                           	xchgl	%ebx, %eax
80200605: 15 49 01 f1 81               	adcl	$0x81f10149, %eax       # imm = 0x81F10149
8020060a: e2 95                        	loop	0x802005a1 <sbi_call+0x459>
8020060c: 83 c5 05                     	addl	$0x5, %ebp
8020060f: 00 13                        	addb	%dl, (%ebx)
80200611: 16                           	pushl	%ss
80200612: 09 01                        	orl	%eax, (%ecx)
80200614: 71 82                        	jno	0x80200598 <sbi_call+0x450>
80200616: 62 96 03 46 06 00            	bound	%edx, 0x64603(%esi)
8020061c: 93                           	xchgl	%ebx, %eax
8020061d: 16                           	pushl	%ss
8020061e: c9                           	leave
8020061f: 00 f1                        	addb	%dh, %cl
80200621: 82 e2 96                     	andb	$-0x6a, %dl
80200624: 83 c6 06                     	addl	$0x6, %esi
80200627: 00 a3 04 a1 02 23            	addb	%ah, 0x2302a104(%ebx)
8020062d: 04 b1                        	addb	$-0x4f, %al
8020062f: 02 a3 03 c1 02 23            	addb	0x2302c103(%ebx), %ah
80200635: 03 d1                        	addl	%ecx, %edx
80200637: 02 13                        	addb	(%ebx), %dl
80200639: 15 89 00 71 81               	adcl	$0x81710089, %eax       # imm = 0x81710089
8020063e: 62 95 03 45 05 00            	bound	%edx, 0x54503(%ebp)
80200644: 93                           	xchgl	%ebx, %eax
80200645: 15 49 00 f1 81               	adcl	$0x81f10049, %eax       # imm = 0x81F10049
8020064a: e2 95                        	loop	0x802005e1 <sbi_call+0x499>
8020064c: 83 c5 05                     	addl	$0x5, %ebp
8020064f: 00 13                        	addb	%dl, (%ebx)
80200651: 56                           	pushl	%esi
80200652: c9                           	leave
80200653: 01 62 96                     	addl	%esp, -0x6a(%edx)
80200656: 03 46 06                     	addl	0x6(%esi), %eax
80200659: 00 a3 02 a1 02 23            	addb	%ah, 0x2302a102(%ebx)
8020065f: 02 b1 02 a3 05 01            	addb	0x105a302(%ecx), %dh
80200665: 02 a3 01 c1 02 13            	addb	0x1302c101(%ebx), %ah
8020066b: 05 00 03 23 01               	addl	$0x1230300, %eax        # imm = 0x1230300
80200670: a1 02 a3 00 a1               	movl	0xa100a302, %eax
80200675: 02 23                        	addb	(%ebx), %ah
80200677: 00 a1 02 a3 0f a1            	addb	%ah, -0x5ef05cfe(%ecx)
8020067d: 00 23                        	addb	%ah, (%ebx)
8020067f: 0f a1                        	popl	%fs
80200681: 00 a3 0e a1 00 23            	addb	%ah, 0x2300a10e(%ebx)
80200687: 0e                           	pushl	%cs
80200688: a1 00 13 05 00               	movl	0x51300, %eax
8020068d: 03 85 48 81 45 01            	addl	0x1458148(%ebp), %eax
80200693: 46                           	incl	%esi
80200694: 81 46 01 47 81 47 01         	addl	$0x1478147, 0x1(%esi)   # imm = 0x1478147
8020069b: 48                           	decl	%eax
8020069c: 75 34                        	jne	0x802006d2 <sbi_call+0x58a>
8020069e: 13 05 80 07 85 48            	adcl	0x48850780, %eax
802006a4: 81 45 01 46 81 46 01         	addl	$0x1468146, 0x1(%ebp)   # imm = 0x1468146
802006ab: 47                           	incl	%edi
802006ac: 81 47 01 48 61 3c 13         	addl	$0x133c6148, 0x1(%edi)  # imm = 0x133C6148
802006b3: 05 00 03 60 08               	addl	$0x8600300, %eax        # imm = 0x8600300
802006b8: 85 48 81                     	testl	%ecx, -0x7f(%eax)
802006bb: 45                           	incl	%ebp
802006bc: 01 46 81                     	addl	%eax, -0x7f(%esi)
802006bf: 46                           	incl	%esi
802006c0: 01 47 81                     	addl	%eax, -0x7f(%edi)
802006c3: 47                           	incl	%edi
802006c4: 01 48 49                     	addl	%ecx, 0x49(%eax)
802006c7: 34 03                        	xorb	$0x3, %al
802006c9: 45                           	incl	%ebp
802006ca: 04 00                        	addb	$0x0, %al
802006cc: 05 04 6d f5 29               	addl	$0x29f56d04, %eax       # imm = 0x29F56D04
802006d1: 45                           	incl	%ebp
802006d2: 85 48 81                     	testl	%ecx, -0x7f(%eax)
802006d5: 45                           	incl	%ebp
802006d6: 01 46 81                     	addl	%eax, -0x7f(%esi)
802006d9: 46                           	incl	%esi
802006da: 01 47 81                     	addl	%eax, -0x7f(%edi)
802006dd: 47                           	incl	%edi
802006de: 01 48 a5                     	addl	%ecx, -0x5b(%eax)
802006e1: 34 26                        	xorb	$0x26, %al
802006e3: 85 ca                        	testl	%ecx, %edx
802006e5: 85 4e 86                     	testl	%ecx, -0x7a(%esi)
802006e8: d6                           	salc
802006e9: 86 52 87                     	xchgb	%dl, -0x79(%edx)
802006ec: d2 47 5e                     	rolb	%cl, 0x5e(%edi)
802006ef: 88 da                        	movb	%bl, %dl
802006f1: 88 73 00                     	movb	%dh, (%ebx)
802006f4: 00 00                        	addb	%al, (%eax)
802006f6: aa                           	stosb	%al, %es:(%edi)
802006f7: 84 2e                        	testb	%ch, (%esi)
802006f9: 89 13                        	movl	%edx, (%ebx)
802006fb: 05 30 07 32 44               	addl	$0x44320730, %eax       # imm = 0x44320730
80200700: 85 48 81                     	testl	%ecx, -0x7f(%eax)
80200703: 45                           	incl	%ebp
80200704: 01 46 81                     	addl	%eax, -0x7f(%esi)
80200707: 46                           	incl	%esi
80200708: 01 47 81                     	addl	%eax, -0x7f(%edi)
8020070b: 47                           	incl	%edi
8020070c: 01 48 2d                     	addl	%ecx, 0x2d(%eax)
8020070f: 3c 03                        	cmpb	$0x3, %al
80200711: 45                           	incl	%ebp
80200712: 04 00                        	addb	$0x0, %al
80200714: 05 04 93 85 ac               	addl	$0xac859304, %eax       # imm = 0xAC859304
80200719: 01 e3                        	addl	%esp, %ebx
8020071b: 13 b4 fe 13 f5 f4 00         	adcl	0xf4f513(%esi,%edi,8), %esi
80200722: 62 95 03 45 05 00            	bound	%edx, 0x54503(%ebp)
80200728: 23 05 a1 02 13 95            	andl	-0x6aecfd5f, %eax
8020072e: 84 01                        	testb	%al, (%ecx)
80200730: 71 81                        	jno	0x802006b3 <sbi_call+0x56b>
80200732: 62 95 03 45 05 00            	bound	%edx, 0x54503(%ebp)
80200738: 93                           	xchgl	%ebx, %eax
80200739: 95                           	xchgl	%ebp, %eax
8020073a: 44                           	incl	%esp
8020073b: 01 f1                        	addl	%esi, %ecx
8020073d: 81 e2 95 83 c5 05            	andl	$0x5c58395, %edx        # imm = 0x5C58395
80200743: 00 13                        	addb	%dl, (%ebx)
80200745: 96                           	xchgl	%esi, %eax
80200746: 04 01                        	addb	$0x1, %al
80200748: 71 82                        	jno	0x802006cc <sbi_call+0x584>
8020074a: 62 96 03 46 06 00            	bound	%edx, 0x64603(%esi)
80200750: 93                           	xchgl	%ebx, %eax
80200751: 96                           	xchgl	%esi, %eax
80200752: c4 00                        	lesl	(%eax), %eax
80200754: f1                           	<unknown>
80200755: 82 e2 96                     	andb	$-0x6a, %dl
80200758: 83 c6 06                     	addl	$0x6, %esi
8020075b: 00 a3 04 a1 02 23            	addb	%ah, 0x2302a104(%ebx)
80200761: 04 b1                        	addb	$-0x4f, %al
80200763: 02 a3 03 c1 02 23            	addb	0x2302c103(%ebx), %ah
80200769: 03 d1                        	addl	%ecx, %edx
8020076b: 02 13                        	addb	(%ebx), %dl
8020076d: 95                           	xchgl	%ebp, %eax
8020076e: 84 00                        	testb	%al, (%eax)
80200770: 71 81                        	jno	0x802006f3 <sbi_call+0x5ab>
80200772: 62 95 03 45 05 00            	bound	%edx, 0x54503(%ebp)
80200778: 93                           	xchgl	%ebx, %eax
80200779: 95                           	xchgl	%ebp, %eax
8020077a: 44                           	incl	%esp
8020077b: 00 f1                        	addb	%dh, %cl
8020077d: 81 e2 95 83 c5 05            	andl	$0x5c58395, %edx        # imm = 0x5C58395
80200783: 00 f1                        	addb	%dh, %cl
80200785: 80 e2 94                     	andb	$-0x6c, %dl
80200788: 03 c6                        	addl	%esi, %eax
8020078a: 04 00                        	addb	$0x0, %al
8020078c: a3 02 a1 02 a3               	movl	%eax, 0xa302a102
80200791: 05 01 02 23 02               	addl	$0x2230201, %eax        # imm = 0x2230201
80200796: b1 02                        	movb	$0x2, %cl
80200798: a3 01 c1 02 13               	movl	%eax, 0x1302c101
8020079d: 05 00 03 23 01               	addl	$0x1230300, %eax        # imm = 0x1230300
802007a2: a1 02 a3 00 a1               	movl	0xa100a302, %eax
802007a7: 02 23                        	addb	(%ebx), %ah
802007a9: 00 a1 02 a3 0f a1            	addb	%ah, -0x5ef05cfe(%ecx)
802007af: 00 23                        	addb	%ah, (%ebx)
802007b1: 0f a1                        	popl	%fs
802007b3: 00 a3 0e a1 00 23            	addb	%ah, 0x2300a10e(%ebx)
802007b9: 0e                           	pushl	%cs
802007ba: a1 00 13 05 00               	movl	0x51300, %eax
802007bf: 03 85 48 81 45 01            	addl	0x1458148(%ebp), %eax
802007c5: 46                           	incl	%esi
802007c6: 81 46 01 47 81 47 01         	addl	$0x1478147, 0x1(%esi)   # imm = 0x1478147
802007cd: 48                           	decl	%eax
802007ce: ad                           	lodsl	(%esi), %eax
802007cf: 3a 13                        	cmpb	(%ebx), %dl
802007d1: 05 80 07 85 48               	addl	$0x48850780, %eax       # imm = 0x48850780
802007d6: 81 45 01 46 81 46 01         	addl	$0x1468146, 0x1(%ebp)   # imm = 0x1468146
802007dd: 47                           	incl	%edi
802007de: 81 47 01 48 9d 32 13         	addl	$0x13329d48, 0x1(%edi)  # imm = 0x13329D48
802007e5: 05 00 03 60 08               	addl	$0x8600300, %eax        # imm = 0x8600300
802007ea: 85 48 81                     	testl	%ecx, -0x7f(%eax)
802007ed: 45                           	incl	%ebp
802007ee: 01 46 81                     	addl	%eax, -0x7f(%esi)
802007f1: 46                           	incl	%esi
802007f2: 01 47 81                     	addl	%eax, -0x7f(%edi)
802007f5: 47                           	incl	%edi
802007f6: 01 48 81                     	addl	%ecx, -0x7f(%eax)
802007f9: 3a 03                        	cmpb	(%ebx), %al
802007fb: 45                           	incl	%ebp
802007fc: 04 00                        	addb	$0x0, %al
802007fe: 05 04 6d f5 13               	addl	$0x13f56d04, %eax       # imm = 0x13F56D04
80200803: 05 c0 02 85 48               	addl	$0x488502c0, %eax       # imm = 0x488502C0
80200808: 81 45 01 46 81 46 01         	addl	$0x1468146, 0x1(%ebp)   # imm = 0x1468146
8020080f: 47                           	incl	%edi
80200810: 81 47 01 48 15 3a 13         	addl	$0x133a1548, 0x1(%edi)  # imm = 0x133A1548
80200817: 05 00 02 85 48               	addl	$0x48850200, %eax       # imm = 0x48850200
8020081c: 81 45 01 46 81 46 01         	addl	$0x1468146, 0x1(%ebp)   # imm = 0x1468146
80200823: 47                           	incl	%edi
80200824: 81 47 01 48 05 32 13         	addl	$0x13320548, 0x1(%edi)  # imm = 0x13320548
8020082b: 05 60 07 85 48               	addl	$0x48850760, %eax       # imm = 0x48850760
80200830: 81 45 01 46 81 46 01         	addl	$0x1468146, 0x1(%ebp)   # imm = 0x1468146
80200837: 47                           	incl	%edi
80200838: 81 47 01 48 31 32 13         	addl	$0x13323148, 0x1(%edi)  # imm = 0x13323148
8020083f: 05 10 06 85 48               	addl	$0x48850610, %eax       # imm = 0x48850610
80200844: 81 45 01 46 81 46 01         	addl	$0x1468146, 0x1(%ebp)   # imm = 0x1468146
8020084b: 47                           	incl	%edi
8020084c: 81 47 01 48 e5 38 13         	addl	$0x1338e548, 0x1(%edi)  # imm = 0x1338E548
80200853: 05 c0 06 85 48               	addl	$0x488506c0, %eax       # imm = 0x488506C0
80200858: 81 45 01 46 81 46 01         	addl	$0x1468146, 0x1(%ebp)   # imm = 0x1468146
8020085f: 47                           	incl	%edi
80200860: 81 47 01 48 d5 30 13         	addl	$0x1330d548, 0x1(%edi)  # imm = 0x1330D548
80200867: 05 50 07 85 48               	addl	$0x48850750, %eax       # imm = 0x48850750
8020086c: 81 45 01 46 81 46 01         	addl	$0x1468146, 0x1(%ebp)   # imm = 0x1468146
80200873: 47                           	incl	%edi
80200874: 81 47 01 48 c1 38 13         	addl	$0x1338c148, 0x1(%edi)  # imm = 0x1338C148
8020087b: 05 50 06 85 48               	addl	$0x48850650, %eax       # imm = 0x48850650
80200880: 81 45 01 46 81 46 01         	addl	$0x1468146, 0x1(%ebp)   # imm = 0x1468146
80200887: 47                           	incl	%edi
80200888: 81 47 01 48 75 38 13         	addl	$0x13387548, 0x1(%edi)  # imm = 0x13387548
8020088f: 05 00 02 85 48               	addl	$0x48850200, %eax       # imm = 0x48850200
80200894: 81 45 01 46 81 46 01         	addl	$0x1468146, 0x1(%ebp)   # imm = 0x1468146
8020089b: 47                           	incl	%edi
8020089c: 81 47 01 48 65 30 13         	addl	$0x13306548, 0x1(%edi)  # imm = 0x13306548
802008a3: 05 d0 03 85 48               	addl	$0x488503d0, %eax       # imm = 0x488503D0
802008a8: 81 45 01 46 81 46 01         	addl	$0x1468146, 0x1(%ebp)   # imm = 0x1468146
802008af: 47                           	incl	%edi
802008b0: 81 47 01 48 51 38 13         	addl	$0x13385148, 0x1(%edi)  # imm = 0x13385148
802008b7: 05 00 02 85 48               	addl	$0x48850200, %eax       # imm = 0x48850200
802008bc: 81 45 01 46 81 46 01         	addl	$0x1468146, 0x1(%ebp)   # imm = 0x1468146
802008c3: 47                           	incl	%edi
802008c4: 81 47 01 48 41 30 13         	addl	$0x13304148, 0x1(%edi)  # imm = 0x13304148
802008cb: 75 f9                        	jne	0x802008c6 <sbi_call+0x77e>
802008cd: 00 62 95                     	addb	%ah, -0x6b(%edx)
802008d0: 03 45 05                     	addl	0x5(%ebp), %eax
802008d3: 00 23                        	addb	%ah, (%ebx)
802008d5: 05 a1 02 13 15               	addl	$0x151302a1, %eax       # imm = 0x151302A1
802008da: 89 01                        	movl	%eax, (%ecx)
802008dc: 71 81                        	jno	0x8020085f <sbi_call+0x717>
802008de: 62 95 03 45 05 00            	bound	%edx, 0x54503(%ebp)
802008e4: 93                           	xchgl	%ebx, %eax
802008e5: 15 49 01 f1 81               	adcl	$0x81f10149, %eax       # imm = 0x81F10149
802008ea: e2 95                        	loop	0x80200881 <sbi_call+0x739>
802008ec: 83 c5 05                     	addl	$0x5, %ebp
802008ef: 00 13                        	addb	%dl, (%ebx)
802008f1: 16                           	pushl	%ss
802008f2: 09 01                        	orl	%eax, (%ecx)
802008f4: 71 82                        	jno	0x80200878 <sbi_call+0x730>
802008f6: 62 96 03 46 06 00            	bound	%edx, 0x64603(%esi)
802008fc: 93                           	xchgl	%ebx, %eax
802008fd: 16                           	pushl	%ss
802008fe: c9                           	leave
802008ff: 00 f1                        	addb	%dh, %cl
80200901: 82 e2 96                     	andb	$-0x6a, %dl
80200904: 83 c6 06                     	addl	$0x6, %esi
80200907: 00 a3 04 a1 02 23            	addb	%ah, 0x2302a104(%ebx)
8020090d: 04 b1                        	addb	$-0x4f, %al
8020090f: 02 a3 03 c1 02 23            	addb	0x2302c103(%ebx), %ah
80200915: 03 d1                        	addl	%ecx, %edx
80200917: 02 13                        	addb	(%ebx), %dl
80200919: 15 89 00 71 81               	adcl	$0x81710089, %eax       # imm = 0x81710089
8020091e: 62 95 03 45 05 00            	bound	%edx, 0x54503(%ebp)
80200924: 93                           	xchgl	%ebx, %eax
80200925: 15 49 00 f1 81               	adcl	$0x81f10049, %eax       # imm = 0x81F10049
8020092a: e2 95                        	loop	0x802008c1 <sbi_call+0x779>
8020092c: 83 c5 05                     	addl	$0x5, %ebp
8020092f: 00 13                        	addb	%dl, (%ebx)
80200931: 56                           	pushl	%esi
80200932: c9                           	leave
80200933: 01 62 96                     	addl	%esp, -0x6a(%edx)
80200936: 03 46 06                     	addl	0x6(%esi), %eax
80200939: 00 a3 02 a1 02 a3            	addb	%ah, -0x5cfd5efe(%ebx)
8020093f: 05 01 02 23 02               	addl	$0x2230201, %eax        # imm = 0x2230201
80200944: b1 02                        	movb	$0x2, %cl
80200946: a3 01 c1 02 13               	movl	%eax, 0x1302c101
8020094b: 05 00 03 23 01               	addl	$0x1230300, %eax        # imm = 0x1230300
80200950: a1 02 a3 00 a1               	movl	0xa100a302, %eax
80200955: 02 23                        	addb	(%ebx), %ah
80200957: 00 a1 02 a3 0f a1            	addb	%ah, -0x5ef05cfe(%ecx)
8020095d: 00 23                        	addb	%ah, (%ebx)
8020095f: 0f a1                        	popl	%fs
80200961: 00 a3 0e a1 00 23            	addb	%ah, 0x2300a10e(%ebx)
80200967: 0e                           	pushl	%cs
80200968: a1 00 13 05 00               	movl	0x51300, %eax
8020096d: 03 85 48 81 45 01            	addl	0x1458148(%ebp), %eax
80200973: 46                           	incl	%esi
80200974: 81 46 01 47 81 47 01         	addl	$0x1478147, 0x1(%esi)   # imm = 0x1478147
8020097b: 48                           	decl	%eax
8020097c: ef                           	outl	%eax, %dx
8020097d: f0                           	lock
8020097e: cf                           	iretl
8020097f: fc                           	cld
80200980: 13 05 80 07 85 48            	adcl	0x48850780, %eax
80200986: 81 45 01 46 81 46 01         	addl	$0x1468146, 0x1(%ebp)   # imm = 0x1468146
8020098d: 47                           	incl	%edi
8020098e: 81 47 01 48 ef f0 6f         	addl	$0x6ff0ef48, 0x1(%edi)  # imm = 0x6FF0EF48
80200995: fb                           	sti
80200996: 13 05 00 03 60 08            	adcl	0x8600300, %eax
8020099c: 85 48 81                     	testl	%ecx, -0x7f(%eax)
8020099f: 45                           	incl	%ebp
802009a0: 01 46 81                     	addl	%eax, -0x7f(%esi)
802009a3: 46                           	incl	%esi
802009a4: 01 47 81                     	addl	%eax, -0x7f(%edi)
802009a7: 47                           	incl	%edi
802009a8: 01 48 ef                     	addl	%ecx, -0x11(%eax)
802009ab: f0                           	lock
802009ac: ef                           	outl	%eax, %dx
802009ad: f9                           	stc
802009ae: 03 45 04                     	addl	0x4(%ebp), %eax
802009b1: 00 05 04 65 f5 01            	addb	%al, 0x1f56504
802009b7: 49                           	decl	%ecx
802009b8: 81 49 81 4a 01 4a 81         	orl	$0x814a014a, -0x7f(%ecx) # imm = 0x814A014A
802009bf: 47                           	incl	%edi
802009c0: 81 4b 05 4b a9 44 6f         	orl	$0x6f44a94b, 0x5(%ebx)  # imm = 0x6F44A94B
802009c7: f0                           	lock
802009c8: 2f                           	das
802009c9: fd                           	std

802009ca <clear_bss>:
802009ca: b7 15                        	movb	$0x15, %bh
802009cc: 20 80 93 85 45 ad            	andb	%al, -0x52ba7a6d(%eax)
802009d2: 37                           	aaa
802009d3: 15 20 80 13 05               	adcl	$0x5138020, %eax        # imm = 0x5138020
802009d8: 45                           	incl	%ebp
802009d9: ad                           	lodsl	(%esi), %eax
802009da: 63 78 b5                     	arpl	%di, -0x4b(%eax)
802009dd: 00 89 8d 23 00 05            	addb	%cl, 0x500238d(%ecx)
802009e3: 00 fd                        	addb	%bh, %ch
802009e5: 15 05 05 e5 fd               	adcl	$0xfde50505, %eax       # imm = 0xFDE50505
802009ea: 82 80 41 11 06 c6 22         	addb	$0x22, -0x39f9eebf(%eax)

802009ec <kernel_main>:
802009ec: 41                           	incl	%ecx
802009ed: 11 06                        	adcl	%eax, (%esi)
802009ef: c6 22                        	<unknown>
802009f1: c4 26                        	lesl	(%esi), %esp
802009f3: c2 b7 14                     	retl	$0x14b7                 # imm = 0x14B7
802009f6: 20 80 93 84 54 a9            	andb	%al, -0x56ab7b6d(%eax)
802009fc: 13 84 14 00 13 05 b0         	adcl	-0x4ffaed00(%esp,%edx), %eax
80200a03: 06                           	pushl	%es
80200a04: d1 04 85 48 81 45 01         	roll	0x1458148(,%eax,4)
80200a0b: 46                           	incl	%esi
80200a0c: 81 46 01 47 81 47 01         	addl	$0x1478147, 0x1(%esi)   # imm = 0x1478147
80200a13: 48                           	decl	%eax
80200a14: ef                           	outl	%eax, %dx
80200a15: f0                           	lock
80200a16: 4f                           	decl	%edi
80200a17: f3 03 45 04                  	rep		addl	0x4(%ebp), %eax
80200a1b: 00 05 04 e3 14 94            	addb	%al, -0x6beb1cfc
80200a21: fe b7 15 20 80 93            	<unknown>
80200a27: 85 45 ad                     	testl	%eax, -0x53(%ebp)
80200a2a: 37                           	aaa
80200a2b: 15 20 80 13 05               	adcl	$0x5138020, %eax        # imm = 0x5138020
80200a30: 45                           	incl	%ebp
80200a31: ad                           	lodsl	(%esi), %eax
80200a32: 63 78 b5                     	arpl	%di, -0x4b(%eax)
80200a35: 00 89 8d 23 00 05            	addb	%cl, 0x500238d(%ecx)
80200a3b: 00 fd                        	addb	%bh, %ch
80200a3d: 15 05 05 e5 fd               	adcl	$0xfde50505, %eax       # imm = 0xFDE50505
80200a42: b7 14                        	movb	$0x14, %bh
80200a44: 20 80 93 84 54 a8            	andb	%al, -0x57ab7b6d(%eax)
80200a4a: 13 84 14 00 29 45 c1         	adcl	-0x3ebad700(%esp,%edx), %eax
80200a51: 04 85                        	addb	$-0x7b, %al
80200a53: 48                           	decl	%eax
80200a54: 81 45 01 46 81 46 01         	addl	$0x1468146, 0x1(%ebp)   # imm = 0x1468146
80200a5b: 47                           	incl	%edi
80200a5c: 81 47 01 48 ef f0 8f         	addl	$0x8ff0ef48, 0x1(%edi)  # imm = 0x8FF0EF48
80200a63: ee                           	outb	%al, %dx
80200a64: 03 45 04                     	addl	0x4(%ebp), %eax
80200a67: 00 05 04 e3 14 94            	addb	%al, -0x6beb1cfc
80200a6d: fe 73 00                     	<unknown>
80200a70: 50                           	pushl	%eax
80200a71: 10 f5                        	adcb	%dh, %ch
80200a73: bf                           	<unknown>

Disassembly of section .rodata:

80200a74 <.rodata>:
80200a74: 73 62                        	jae	0x80200ad8 <__bss_end+0x4>
80200a76: 69 5f 63 61 6c 6c 3a         	imull	$0x3a6c6c61, 0x63(%edi), %ebx # imm = 0x3A6C6C61
80200a7d: 20 66 69                     	andb	%ah, 0x69(%esi)
80200a80: 64 20 3d 20 00 0a 0a         	andb	%bh, %fs:0xa0a0020
80200a87: 48                           	decl	%eax
80200a88: 65 6c                        	insb	%dx, %es:(%edi)
80200a8a: 6c                           	insb	%dx, %es:(%edi)
80200a8b: 6f                           	outsl	(%esi), %dx
80200a8c: 20 57 6f                     	andb	%dl, 0x6f(%edi)
80200a8f: 72 6c                        	jb	0x80200afd <__bss_end+0x29>
80200a91: 64 21 0a                     	andl	%ecx, %fs:(%edx)
80200a94: 00 6b 65                     	addb	%ch, 0x65(%ebx)
80200a97: 72 6e                        	jb	0x80200b07 <__bss_end+0x33>
80200a99: 65 6c                        	insb	%dx, %es:(%edi)
80200a9b: 5f                           	popl	%edi
80200a9c: 6d                           	insl	%dx, %es:(%edi)
80200a9d: 61                           	popal
80200a9e: 69 6e 3a 20 73 74 61         	imull	$0x61747320, 0x3a(%esi), %ebp # imm = 0x61747320
80200aa5: 72 74                        	jb	0x80200b1b <__bss_end+0x47>
80200aa7: 0a 00                        	orb	(%eax), %al
80200aa9: 73 62                        	jae	0x80200b0d <__bss_end+0x39>
80200aab: 69 5f 63 61 6c 6c 3a         	imull	$0x3a6c6c61, 0x63(%edi), %ebx # imm = 0x3A6C6C61
80200ab2: 20 72 65                     	andb	%dh, 0x65(%edx)
80200ab5: 74 75                        	je	0x80200b2c <__bss_end+0x58>
80200ab7: 72 6e                        	jb	0x80200b27 <__bss_end+0x53>
80200ab9: 20 65 72                     	andb	%ah, 0x72(%ebp)
80200abc: 72 6f                        	jb	0x80200b2d <__bss_end+0x59>
80200abe: 72 20                        	jb	0x80200ae0 <__bss_end+0xc>
80200ac0: 3d 20 00 30 31               	cmpl	$0x31300020, %eax       # imm = 0x31300020

80200ac3 <$d>:
80200ac3: 30 31                        	xorb	%dh, (%ecx)
80200ac5: 32 33                        	xorb	(%ebx), %dh
80200ac7: 34 35                        	xorb	$0x35, %al
80200ac9: 36 37                        	aaa
80200acb: 38 39                        	cmpb	%bh, (%ecx)
80200acd: 61                           	popal
80200ace: 62 63 64                     	bound	%esp, 0x64(%ebx)
80200ad1: 65 66 00                     	<unknown>

Disassembly of section .debug_loclists:

00000000 <$d>:
       0: d7                           	xlatb
       1: 21 00                        	andl	%eax, (%eax)
       3: 00 05 00 04 00 46            	addb	%al, 0x46000400
       9: 00 00                        	addb	%al, (%eax)
       b: 00 18                        	addb	%bl, (%eax)
       d: 01 00                        	addl	%eax, (%eax)
       f: 00 25 01 00 00 2f            	addb	%ah, 0x2f000001
      15: 01 00                        	addl	%eax, (%eax)
      17: 00 50 01                     	addb	%dl, 0x1(%eax)
      1a: 00 00                        	addb	%al, (%eax)
      1c: e2 01                        	loop	0x1f <$d+0x1f>
      1e: 00 00                        	addb	%al, (%eax)
      20: f7 01 00 00 0c 02            	testl	$0x20c0000, (%ecx)      # imm = 0x20C0000
      26: 00 00                        	addb	%al, (%eax)
      28: 30 02                        	xorb	%al, (%edx)
      2a: 00 00                        	addb	%al, (%eax)
      2c: 3a 02                        	cmpb	(%edx), %al
      2e: 00 00                        	addb	%al, (%eax)
      30: 44                           	incl	%esp
      31: 02 00                        	addb	(%eax), %al
      33: 00 4e 02                     	addb	%cl, 0x2(%esi)
      36: 00 00                        	addb	%al, (%eax)
      38: 58                           	popl	%eax
      39: 02 00                        	addb	(%eax), %al
      3b: 00 62 02                     	addb	%ah, 0x2(%edx)
      3e: 00 00                        	addb	%al, (%eax)
      40: 74 02                        	je	0x44 <$d+0x44>
      42: 00 00                        	addb	%al, (%eax)
      44: 7e 02                        	jle	0x48 <$d+0x48>
      46: 00 00                        	addb	%al, (%eax)
      48: 88 02                        	movb	%al, (%edx)
      4a: 00 00                        	addb	%al, (%eax)
      4c: 3b 06                        	cmpl	(%esi), %eax
      4e: 00 00                        	addb	%al, (%eax)
      50: 5e                           	popl	%esi
      51: 06                           	pushl	%es
      52: 00 00                        	addb	%al, (%eax)
      54: f1                           	<unknown>
      55: 06                           	pushl	%es
      56: 00 00                        	addb	%al, (%eax)
      58: 06                           	pushl	%es
      59: 07                           	popl	%es
      5a: 00 00                        	addb	%al, (%eax)
      5c: 24 07                        	andb	$0x7, %al
      5e: 00 00                        	addb	%al, (%eax)
      60: 48                           	decl	%eax
      61: 07                           	popl	%es
      62: 00 00                        	addb	%al, (%eax)
      64: 9c                           	pushfl
      65: 07                           	popl	%es
      66: 00 00                        	addb	%al, (%eax)
      68: e7 07                        	outl	%eax, $0x7
      6a: 00 00                        	addb	%al, (%eax)
      6c: 0a 08                        	orb	(%eax), %cl
      6e: 00 00                        	addb	%al, (%eax)
      70: bd 0b 00 00 50               	movl	$0x5000000b, %ebp       # imm = 0x5000000B
      75: 0c 00                        	orb	$0x0, %al
      77: 00 65 0c                     	addb	%ah, 0xc(%ebp)
      7a: 00 00                        	addb	%al, (%eax)
      7c: 83 0c 00 00                  	orl	$0x0, (%eax,%eax)
      80: a7                           	cmpsl	%es:(%edi), (%esi)
      81: 0c 00                        	orb	$0x0, %al
      83: 00 04 0d 00 00 58 0d         	addb	%al, 0xd580000(,%ecx)
      8a: 00 00                        	addb	%al, (%eax)
      8c: 7b 0d                        	jnp	0x9b <$d+0x9b>
      8e: 00 00                        	addb	%al, (%eax)
      90: 2e 11 00                     	adcl	%eax, %cs:(%eax)
      93: 00 c1                        	addb	%al, %cl
      95: 11 00                        	adcl	%eax, (%eax)
      97: 00 d6                        	addb	%dl, %dh
      99: 11 00                        	adcl	%eax, (%eax)
      9b: 00 f4                        	addb	%dh, %ah
      9d: 11 00                        	adcl	%eax, (%eax)
      9f: 00 18                        	addb	%bl, (%eax)
      a1: 12 00                        	adcb	(%eax), %al
      a3: 00 36                        	addb	%dh, (%esi)
      a5: 12 00                        	adcb	(%eax), %al
      a7: 00 4b 12                     	addb	%cl, 0x12(%ebx)
      aa: 00 00                        	addb	%al, (%eax)
      ac: 6e                           	outsb	(%esi), %dx
      ad: 12 00                        	adcb	(%eax), %al
      af: 00 21                        	addb	%ah, (%ecx)
      b1: 16                           	pushl	%ss
      b2: 00 00                        	addb	%al, (%eax)
      b4: b4 16                        	movb	$0x16, %ah
      b6: 00 00                        	addb	%al, (%eax)
      b8: c9                           	leave
      b9: 16                           	pushl	%ss
      ba: 00 00                        	addb	%al, (%eax)
      bc: e7 16                        	outl	%eax, $0x16
      be: 00 00                        	addb	%al, (%eax)
      c0: 0b 17                        	orl	(%edi), %edx
      c2: 00 00                        	addb	%al, (%eax)
      c4: 20 17                        	andb	%dl, (%edi)
      c6: 00 00                        	addb	%al, (%eax)
      c8: 2a 17                        	subb	(%edi), %dl
      ca: 00 00                        	addb	%al, (%eax)
      cc: 34 17                        	xorb	$0x17, %al
      ce: 00 00                        	addb	%al, (%eax)
      d0: 3f                           	aas
      d1: 17                           	popl	%ss
      d2: 00 00                        	addb	%al, (%eax)
      d4: 49                           	decl	%ecx
      d5: 17                           	popl	%ss
      d6: 00 00                        	addb	%al, (%eax)
      d8: 53                           	pushl	%ebx
      d9: 17                           	popl	%ss
      da: 00 00                        	addb	%al, (%eax)
      dc: 5d                           	popl	%ebp
      dd: 17                           	popl	%ss
      de: 00 00                        	addb	%al, (%eax)
      e0: 6e                           	outsb	(%esi), %dx
      e1: 17                           	popl	%ss
      e2: 00 00                        	addb	%al, (%eax)
      e4: 78 17                        	js	0xfd <$d+0xfd>
      e6: 00 00                        	addb	%al, (%eax)
      e8: 2b 1b                        	subl	(%ebx), %ebx
      ea: 00 00                        	addb	%al, (%eax)
      ec: 4e                           	decl	%esi
      ed: 1b 00                        	sbbl	(%eax), %eax
      ef: 00 e1                        	addb	%ah, %cl
      f1: 1b 00                        	sbbl	(%eax), %eax
      f3: 00 f6                        	addb	%dh, %dh
      f5: 1b 00                        	sbbl	(%eax), %eax
      f7: 00 14 1c                     	addb	%dl, (%esp,%ebx)
      fa: 00 00                        	addb	%al, (%eax)
      fc: 38 1c 00                     	cmpb	%bl, (%eax,%eax)
      ff: 00 9e 1c 00 00 fb            	addb	%bl, -0x4ffffe4(%esi)
     105: 1c 00                        	sbbb	$0x0, %al
     107: 00 1e                        	addb	%bl, (%esi)
     109: 1d 00 00 d1 20               	sbbl	$0x20d10000, %eax       # imm = 0x20D10000
     10e: 00 00                        	addb	%al, (%eax)
     110: 64 21 00                     	andl	%eax, %fs:(%eax)
     113: 00 79 21                     	addb	%bh, 0x21(%ecx)
     116: 00 00                        	addb	%al, (%eax)
     118: 97                           	xchgl	%edi, %eax
     119: 21 00                        	andl	%eax, (%eax)
     11b: 00 bb 21 00 00 c5            	addb	%bh, -0x3affffdf(%ebx)
     121: 21 00                        	andl	%eax, (%eax)
     123: 00 01                        	addb	%al, (%ecx)
     125: 04 04                        	addb	$0x4, %al
     127: 00 02                        	addb	%al, (%edx)
     129: 01 5a 04                     	addl	%ebx, 0x4(%edx)
     12c: 02 12                        	addb	(%edx), %dl
     12e: 01 5b 00                     	addl	%ebx, (%ebx)
     131: 01 04 04                     	addl	%eax, (%esp,%eax)
     134: 02 12                        	addb	(%edx), %dl
     136: 03 11                        	addl	(%ecx), %edx
     138: 00 9f 00 01 04 04            	addb	%bl, 0x4040100(%edi)
     13e: 42                           	incl	%edx
     13f: 5e                           	popl	%esi
     140: 01 5a 04                     	addl	%ebx, 0x4(%edx)
     143: b0 01                        	movb	$0x1, %al
     145: b2 01                        	movb	$0x1, %dl
     147: 01 5a 04                     	addl	%ebx, 0x4(%edx)
     14a: d2 01                        	rolb	%cl, (%ecx)
     14c: f0                           	lock
     14d: 01 02                        	addl	%eax, (%edx)
     14f: 30 9f 04 f0 01 bc            	xorb	%bl, -0x43fe0ffc(%edi)
     155: 02 04 30                     	addb	(%eax,%esi), %al
     158: 34 25                        	xorb	$0x25, %al
     15a: 9f                           	lahf
     15b: 00 01                        	addb	%al, (%ecx)
     15d: 04 04                        	addb	$0x4, %al
     15f: 5e                           	popl	%esi
     160: 92                           	xchgl	%edx, %eax
     161: 01 03                        	addl	%eax, (%ebx)
     163: 11 0e                        	adcl	%ecx, (%esi)
     165: 9f                           	lahf
     166: 04 92                        	addb	$-0x6e, %al
     168: 01 96 01 03 11 0d            	addl	%edx, 0xd110301(%esi)
     16e: 9f                           	lahf
     16f: 04 96                        	addb	$-0x6a, %al
     171: 01 9a 01 03 11 0c            	addl	%ebx, 0xc110301(%edx)
     177: 9f                           	lahf
     178: 04 9a                        	addb	$-0x66, %al
     17a: 01 9e 01 03 11 0b            	addl	%ebx, 0xb110301(%esi)
     180: 9f                           	lahf
     181: 04 9e                        	addb	$-0x62, %al
     183: 01 b0 01 03 11 0a            	addl	%esi, 0xa110301(%eax)
     189: 9f                           	lahf
     18a: 04 b0                        	addb	$-0x50, %al
     18c: 01 c2                        	addl	%eax, %edx
     18e: 01 03                        	addl	%eax, (%ebx)
     190: 11 08                        	adcl	%ecx, (%eax)
     192: 9f                           	lahf
     193: 04 c2                        	addb	$-0x3e, %al
     195: 01 c6                        	addl	%eax, %esi
     197: 01 03                        	addl	%eax, (%ebx)
     199: 11 0f                        	adcl	%ecx, (%edi)
     19b: 9f                           	lahf
     19c: 04 c6                        	addb	$-0x3a, %al
     19e: 01 d2                        	addl	%edx, %edx
     1a0: 01 03                        	addl	%eax, (%ebx)
     1a2: 11 09                        	adcl	%ecx, (%ecx)
     1a4: 9f                           	lahf
     1a5: 04 d2                        	addb	$-0x2e, %al
     1a7: 01 d6                        	addl	%edx, %esi
     1a9: 01 03                        	addl	%eax, (%ebx)
     1ab: 11 07                        	adcl	%eax, (%edi)
     1ad: 9f                           	lahf
     1ae: 04 d6                        	addb	$-0x2a, %al
     1b0: 01 da                        	addl	%ebx, %edx
     1b2: 01 03                        	addl	%eax, (%ebx)
     1b4: 11 06                        	adcl	%eax, (%esi)
     1b6: 9f                           	lahf
     1b7: 04 da                        	addb	$-0x26, %al
     1b9: 01 de                        	addl	%ebx, %esi
     1bb: 01 03                        	addl	%eax, (%ebx)
     1bd: 11 05 9f 04 de 01            	adcl	%eax, 0x1de049f
     1c3: e2 01                        	loop	0x1c6 <$d+0x1c6>
     1c5: 03 11                        	addl	(%ecx), %edx
     1c7: 04 9f                        	addb	$-0x61, %al
     1c9: 04 e2                        	addb	$-0x1e, %al
     1cb: 01 e6                        	addl	%esp, %esi
     1cd: 01 03                        	addl	%eax, (%ebx)
     1cf: 11 03                        	adcl	%eax, (%ebx)
     1d1: 9f                           	lahf
     1d2: 04 e6                        	addb	$-0x1a, %al
     1d4: 01 ea                        	addl	%ebp, %edx
     1d6: 01 03                        	addl	%eax, (%ebx)
     1d8: 11 02                        	adcl	%eax, (%edx)
     1da: 9f                           	lahf
     1db: 04 ea                        	addb	$-0x16, %al
     1dd: 01 f0                        	addl	%esi, %eax
     1df: 01 03                        	addl	%eax, (%ebx)
     1e1: 11 01                        	adcl	%eax, (%ecx)
     1e3: 9f                           	lahf
     1e4: 04 f0                        	addb	$-0x10, %al
     1e6: 01 9c 02 03 11 7f 9f         	addl	%ebx, -0x6080eefd(%edx,%eax)
     1ed: 00 01                        	addb	%al, (%ecx)
     1ef: 04 04                        	addb	$0x4, %al
     1f1: f0                           	lock
     1f2: 01 84 02 03 10 30 9f         	addl	%eax, -0x60cfeffd(%edx,%eax)
     1f9: 04 84                        	addb	$-0x7c, %al
     1fb: 02 9c 02 03 10 78 9f         	addb	-0x6087effd(%edx,%eax), %bl
     202: 00 01                        	addb	%al, (%ecx)
     204: 04 04                        	addb	$0x4, %al
     206: f0                           	lock
     207: 01 84 02 03 11 00 9f         	addl	%eax, -0x60ffeefd(%edx,%eax)
     20e: 04 84                        	addb	$-0x7c, %al
     210: 02 9c 02 03 11 01 9f         	addb	-0x60feeefd(%edx,%eax), %bl
     217: 00 01                        	addb	%al, (%ecx)
     219: 04 04                        	addb	$0x4, %al
     21b: 9c                           	pushfl
     21c: 02 ac 02 09 78 00 11         	addb	0x11007809(%edx,%eax), %ch
     223: 01 72 07                     	addl	%esi, 0x7(%edx)
     226: 22 1c 9f                     	andb	(%edi,%ebx,4), %bl
     229: 04 ac                        	addb	$-0x54, %al
     22b: 02 b2 02 0c 78 00            	addb	0x780c02(%edx), %dh
     231: 11 01                        	adcl	%eax, (%ecx)
     233: 72 07                        	jb	0x23c <$d+0x23c>
     235: 22 1c 11                     	andb	(%ecx,%edx), %bl
     238: 01 22                        	addl	%esp, (%edx)
     23a: 9f                           	lahf
     23b: 00 01                        	addb	%al, (%ecx)
     23d: 04 04                        	addb	$0x4, %al
     23f: 8c 03                        	movw	%es, (%ebx)
     241: ec                           	inb	%dx, %al
     242: 0d 01 59 00 01               	orl	$0x1005901, %eax        # imm = 0x1005901
     247: 04 04                        	addb	$0x4, %al
     249: 8c 03                        	movw	%es, (%ebx)
     24b: ee                           	outb	%al, %dx
     24c: 0d 01 62 00 01               	orl	$0x1006201, %eax        # imm = 0x1006201
     251: 04 04                        	addb	$0x4, %al
     253: 8c 03                        	movw	%es, (%ebx)
     255: ae                           	scasb	%es:(%edi), %al
     256: 13 01                        	adcl	(%ecx), %eax
     258: 63 00                        	arpl	%ax, (%eax)
     25a: 01 04 04                     	addl	%eax, (%esp,%eax)
     25d: 8c 03                        	movw	%es, (%ebx)
     25f: b0 13                        	movb	$0x13, %al
     261: 01 65 00                     	addl	%esp, (%ebp)
     264: 01 04 04                     	addl	%eax, (%esp,%eax)
     267: 8c 03                        	movw	%es, (%ebx)
     269: b2 13                        	movb	$0x13, %dl
     26b: 01 64 00 01                  	addl	%esp, 0x1(%eax,%eax)
     26f: 04 04                        	addb	$0x4, %al
     271: 8c 03                        	movw	%es, (%ebx)
     273: 8e 03                        	movw	(%ebx), %es
     275: 01 5f 04                     	addl	%ebx, 0x4(%edi)
     278: 8e 03                        	movw	(%ebx), %es
     27a: be 13 02 72 14               	movl	$0x14720213, %esi       # imm = 0x14720213
     27f: 00 01                        	addb	%al, (%ecx)
     281: 04 04                        	addb	$0x4, %al
     283: 8c 03                        	movw	%es, (%ebx)
     285: b6 13                        	movb	$0x13, %dh
     287: 01 67 00                     	addl	%esp, (%edi)
     28a: 01 04 04                     	addl	%eax, (%esp,%eax)
     28d: 8c 03                        	movw	%es, (%ebx)
     28f: b8 13 01 66 00               	movl	$0x660113, %eax         # imm = 0x660113
     294: 01 04 04                     	addl	%eax, (%esp,%eax)
     297: bc 03 f0 03 08               	movl	$0x803f003, %esp        # imm = 0x803F003
     29c: 93                           	xchgl	%ebx, %eax
     29d: 0f 72 1b                     	<unknown>
     2a0: 23 0f                        	andl	(%edi), %ecx
     2a2: 93                           	xchgl	%ebx, %eax
     2a3: 01 04 f0                     	addl	%eax, (%eax,%esi,8)
     2a6: 03 f4                        	addl	%esp, %esi
     2a8: 03 0e                        	addl	(%esi), %ecx
     2aa: 93                           	xchgl	%ebx, %eax
     2ab: 0e                           	pushl	%cs
     2ac: 72 1b                        	jb	0x2c9 <$d+0x2c9>
     2ae: 23 0e                        	andl	(%esi), %ecx
     2b0: 93                           	xchgl	%ebx, %eax
     2b1: 01 72 1b                     	addl	%esi, 0x1b(%edx)
     2b4: 23 0f                        	andl	(%edi), %ecx
     2b6: 93                           	xchgl	%ebx, %eax
     2b7: 01 04 f4                     	addl	%eax, (%esp,%esi,8)
     2ba: 03 f8                        	addl	%eax, %edi
     2bc: 03 14 93                     	addl	(%ebx,%edx,4), %edx
     2bf: 0d 72 1b 23 0d               	orl	$0xd231b72, %eax        # imm = 0xD231B72
     2c4: 93                           	xchgl	%ebx, %eax
     2c5: 01 72 1b                     	addl	%esi, 0x1b(%edx)
     2c8: 23 0e                        	andl	(%esi), %ecx
     2ca: 93                           	xchgl	%ebx, %eax
     2cb: 01 72 1b                     	addl	%esi, 0x1b(%edx)
     2ce: 23 0f                        	andl	(%edi), %ecx
     2d0: 93                           	xchgl	%ebx, %eax
     2d1: 01 04 f8                     	addl	%eax, (%eax,%edi,8)
     2d4: 03 fc                        	addl	%esp, %edi
     2d6: 03 1a                        	addl	(%edx), %ebx
     2d8: 93                           	xchgl	%ebx, %eax
     2d9: 0c 72                        	orb	$0x72, %al
     2db: 1b 23                        	sbbl	(%ebx), %esp
     2dd: 0c 93                        	orb	$-0x6d, %al
     2df: 01 72 1b                     	addl	%esi, 0x1b(%edx)
     2e2: 23 0d 93 01 72 1b            	andl	0x1b720193, %ecx
     2e8: 23 0e                        	andl	(%esi), %ecx
     2ea: 93                           	xchgl	%ebx, %eax
     2eb: 01 72 1b                     	addl	%esi, 0x1b(%edx)
     2ee: 23 0f                        	andl	(%edi), %ecx
     2f0: 93                           	xchgl	%ebx, %eax
     2f1: 01 04 fc                     	addl	%eax, (%esp,%edi,8)
     2f4: 03 a2 04 20 93 0b            	addl	0xb932004(%edx), %esp
     2fa: 72 1b                        	jb	0x317 <$d+0x317>
     2fc: 23 0b                        	andl	(%ebx), %ecx
     2fe: 93                           	xchgl	%ebx, %eax
     2ff: 01 72 1b                     	addl	%esi, 0x1b(%edx)
     302: 23 0c 93                     	andl	(%ebx,%edx,4), %ecx
     305: 01 72 1b                     	addl	%esi, 0x1b(%edx)
     308: 23 0d 93 01 72 1b            	andl	0x1b720193, %ecx
     30e: 23 0e                        	andl	(%esi), %ecx
     310: 93                           	xchgl	%ebx, %eax
     311: 01 72 1b                     	addl	%esi, 0x1b(%edx)
     314: 23 0f                        	andl	(%edi), %ecx
     316: 93                           	xchgl	%ebx, %eax
     317: 01 04 a2                     	addl	%eax, (%edx,%eiz,4)
     31a: 04 a6                        	addb	$-0x5a, %al
     31c: 04 26                        	addb	$0x26, %al
     31e: 93                           	xchgl	%ebx, %eax
     31f: 0a 72 1b                     	orb	0x1b(%edx), %dh
     322: 23 0a                        	andl	(%edx), %ecx
     324: 93                           	xchgl	%ebx, %eax
     325: 01 72 1b                     	addl	%esi, 0x1b(%edx)
     328: 23 0b                        	andl	(%ebx), %ecx
     32a: 93                           	xchgl	%ebx, %eax
     32b: 01 72 1b                     	addl	%esi, 0x1b(%edx)
     32e: 23 0c 93                     	andl	(%ebx,%edx,4), %ecx
     331: 01 72 1b                     	addl	%esi, 0x1b(%edx)
     334: 23 0d 93 01 72 1b            	andl	0x1b720193, %ecx
     33a: 23 0e                        	andl	(%esi), %ecx
     33c: 93                           	xchgl	%ebx, %eax
     33d: 01 72 1b                     	addl	%esi, 0x1b(%edx)
     340: 23 0f                        	andl	(%edi), %ecx
     342: 93                           	xchgl	%ebx, %eax
     343: 01 04 a6                     	addl	%eax, (%esi,%eiz,4)
     346: 04 aa                        	addb	$-0x56, %al
     348: 04 2c                        	addb	$0x2c, %al
     34a: 93                           	xchgl	%ebx, %eax
     34b: 09 72 1b                     	orl	%esi, 0x1b(%edx)
     34e: 23 09                        	andl	(%ecx), %ecx
     350: 93                           	xchgl	%ebx, %eax
     351: 01 72 1b                     	addl	%esi, 0x1b(%edx)
     354: 23 0a                        	andl	(%edx), %ecx
     356: 93                           	xchgl	%ebx, %eax
     357: 01 72 1b                     	addl	%esi, 0x1b(%edx)
     35a: 23 0b                        	andl	(%ebx), %ecx
     35c: 93                           	xchgl	%ebx, %eax
     35d: 01 72 1b                     	addl	%esi, 0x1b(%edx)
     360: 23 0c 93                     	andl	(%ebx,%edx,4), %ecx
     363: 01 72 1b                     	addl	%esi, 0x1b(%edx)
     366: 23 0d 93 01 72 1b            	andl	0x1b720193, %ecx
     36c: 23 0e                        	andl	(%esi), %ecx
     36e: 93                           	xchgl	%ebx, %eax
     36f: 01 72 1b                     	addl	%esi, 0x1b(%edx)
     372: 23 0f                        	andl	(%edi), %ecx
     374: 93                           	xchgl	%ebx, %eax
     375: 01 04 aa                     	addl	%eax, (%edx,%ebp,4)
     378: 04 b2                        	addb	$-0x4e, %al
     37a: 04 32                        	addb	$0x32, %al
     37c: 93                           	xchgl	%ebx, %eax
     37d: 09 72 1b                     	orl	%esi, 0x1b(%edx)
     380: 23 09                        	andl	(%ecx), %ecx
     382: 93                           	xchgl	%ebx, %eax
     383: 01 72 1b                     	addl	%esi, 0x1b(%edx)
     386: 23 0a                        	andl	(%edx), %ecx
     388: 93                           	xchgl	%ebx, %eax
     389: 01 72 1b                     	addl	%esi, 0x1b(%edx)
     38c: 23 0b                        	andl	(%ebx), %ecx
     38e: 93                           	xchgl	%ebx, %eax
     38f: 01 72 1b                     	addl	%esi, 0x1b(%edx)
     392: 23 0c 93                     	andl	(%ebx,%edx,4), %ecx
     395: 01 72 1b                     	addl	%esi, 0x1b(%edx)
     398: 23 0d 93 01 72 1b            	andl	0x1b720193, %ecx
     39e: 23 0e                        	andl	(%esi), %ecx
     3a0: 93                           	xchgl	%ebx, %eax
     3a1: 01 72 1b                     	addl	%esi, 0x1b(%edx)
     3a4: 23 0f                        	andl	(%edi), %ecx
     3a6: 93                           	xchgl	%ebx, %eax
     3a7: 01 72 1b                     	addl	%esi, 0x1b(%edx)
     3aa: 23 10                        	andl	(%eax), %edx
     3ac: 93                           	xchgl	%ebx, %eax
     3ad: 01 04 b2                     	addl	%eax, (%edx,%esi,4)
     3b0: 04 b6                        	addb	$-0x4a, %al
     3b2: 04 38                        	addb	$0x38, %al
     3b4: 93                           	xchgl	%ebx, %eax
     3b5: 08 72 1b                     	orb	%dh, 0x1b(%edx)
     3b8: 23 08                        	andl	(%eax), %ecx
     3ba: 93                           	xchgl	%ebx, %eax
     3bb: 01 72 1b                     	addl	%esi, 0x1b(%edx)
     3be: 23 09                        	andl	(%ecx), %ecx
     3c0: 93                           	xchgl	%ebx, %eax
     3c1: 01 72 1b                     	addl	%esi, 0x1b(%edx)
     3c4: 23 0a                        	andl	(%edx), %ecx
     3c6: 93                           	xchgl	%ebx, %eax
     3c7: 01 72 1b                     	addl	%esi, 0x1b(%edx)
     3ca: 23 0b                        	andl	(%ebx), %ecx
     3cc: 93                           	xchgl	%ebx, %eax
     3cd: 01 72 1b                     	addl	%esi, 0x1b(%edx)
     3d0: 23 0c 93                     	andl	(%ebx,%edx,4), %ecx
     3d3: 01 72 1b                     	addl	%esi, 0x1b(%edx)
     3d6: 23 0d 93 01 72 1b            	andl	0x1b720193, %ecx
     3dc: 23 0e                        	andl	(%esi), %ecx
     3de: 93                           	xchgl	%ebx, %eax
     3df: 01 72 1b                     	addl	%esi, 0x1b(%edx)
     3e2: 23 0f                        	andl	(%edi), %ecx
     3e4: 93                           	xchgl	%ebx, %eax
     3e5: 01 72 1b                     	addl	%esi, 0x1b(%edx)
     3e8: 23 10                        	andl	(%eax), %edx
     3ea: 93                           	xchgl	%ebx, %eax
     3eb: 01 04 b6                     	addl	%eax, (%esi,%esi,4)
     3ee: 04 ba                        	addb	$-0x46, %al
     3f0: 04 3e                        	addb	$0x3e, %al
     3f2: 93                           	xchgl	%ebx, %eax
     3f3: 07                           	popl	%es
     3f4: 72 1b                        	jb	0x411 <$d+0x411>
     3f6: 23 07                        	andl	(%edi), %eax
     3f8: 93                           	xchgl	%ebx, %eax
     3f9: 01 72 1b                     	addl	%esi, 0x1b(%edx)
     3fc: 23 08                        	andl	(%eax), %ecx
     3fe: 93                           	xchgl	%ebx, %eax
     3ff: 01 72 1b                     	addl	%esi, 0x1b(%edx)
     402: 23 09                        	andl	(%ecx), %ecx
     404: 93                           	xchgl	%ebx, %eax
     405: 01 72 1b                     	addl	%esi, 0x1b(%edx)
     408: 23 0a                        	andl	(%edx), %ecx
     40a: 93                           	xchgl	%ebx, %eax
     40b: 01 72 1b                     	addl	%esi, 0x1b(%edx)
     40e: 23 0b                        	andl	(%ebx), %ecx
     410: 93                           	xchgl	%ebx, %eax
     411: 01 72 1b                     	addl	%esi, 0x1b(%edx)
     414: 23 0c 93                     	andl	(%ebx,%edx,4), %ecx
     417: 01 72 1b                     	addl	%esi, 0x1b(%edx)
     41a: 23 0d 93 01 72 1b            	andl	0x1b720193, %ecx
     420: 23 0e                        	andl	(%esi), %ecx
     422: 93                           	xchgl	%ebx, %eax
     423: 01 72 1b                     	addl	%esi, 0x1b(%edx)
     426: 23 0f                        	andl	(%edi), %ecx
     428: 93                           	xchgl	%ebx, %eax
     429: 01 72 1b                     	addl	%esi, 0x1b(%edx)
     42c: 23 10                        	andl	(%eax), %edx
     42e: 93                           	xchgl	%ebx, %eax
     42f: 01 04 ba                     	addl	%eax, (%edx,%edi,4)
     432: 04 be                        	addb	$-0x42, %al
     434: 04 44                        	addb	$0x44, %al
     436: 93                           	xchgl	%ebx, %eax
     437: 06                           	pushl	%es
     438: 72 1b                        	jb	0x455 <$d+0x455>
     43a: 23 06                        	andl	(%esi), %eax
     43c: 93                           	xchgl	%ebx, %eax
     43d: 01 72 1b                     	addl	%esi, 0x1b(%edx)
     440: 23 07                        	andl	(%edi), %eax
     442: 93                           	xchgl	%ebx, %eax
     443: 01 72 1b                     	addl	%esi, 0x1b(%edx)
     446: 23 08                        	andl	(%eax), %ecx
     448: 93                           	xchgl	%ebx, %eax
     449: 01 72 1b                     	addl	%esi, 0x1b(%edx)
     44c: 23 09                        	andl	(%ecx), %ecx
     44e: 93                           	xchgl	%ebx, %eax
     44f: 01 72 1b                     	addl	%esi, 0x1b(%edx)
     452: 23 0a                        	andl	(%edx), %ecx
     454: 93                           	xchgl	%ebx, %eax
     455: 01 72 1b                     	addl	%esi, 0x1b(%edx)
     458: 23 0b                        	andl	(%ebx), %ecx
     45a: 93                           	xchgl	%ebx, %eax
     45b: 01 72 1b                     	addl	%esi, 0x1b(%edx)
     45e: 23 0c 93                     	andl	(%ebx,%edx,4), %ecx
     461: 01 72 1b                     	addl	%esi, 0x1b(%edx)
     464: 23 0d 93 01 72 1b            	andl	0x1b720193, %ecx
     46a: 23 0e                        	andl	(%esi), %ecx
     46c: 93                           	xchgl	%ebx, %eax
     46d: 01 72 1b                     	addl	%esi, 0x1b(%edx)
     470: 23 0f                        	andl	(%edi), %ecx
     472: 93                           	xchgl	%ebx, %eax
     473: 01 72 1b                     	addl	%esi, 0x1b(%edx)
     476: 23 10                        	andl	(%eax), %edx
     478: 93                           	xchgl	%ebx, %eax
     479: 01 04 be                     	addl	%eax, (%esi,%edi,4)
     47c: 04 c2                        	addb	$-0x3e, %al
     47e: 04 4a                        	addb	$0x4a, %al
     480: 93                           	xchgl	%ebx, %eax
     481: 05 72 1b 23 05               	addl	$0x5231b72, %eax        # imm = 0x5231B72
     486: 93                           	xchgl	%ebx, %eax
     487: 01 72 1b                     	addl	%esi, 0x1b(%edx)
     48a: 23 06                        	andl	(%esi), %eax
     48c: 93                           	xchgl	%ebx, %eax
     48d: 01 72 1b                     	addl	%esi, 0x1b(%edx)
     490: 23 07                        	andl	(%edi), %eax
     492: 93                           	xchgl	%ebx, %eax
     493: 01 72 1b                     	addl	%esi, 0x1b(%edx)
     496: 23 08                        	andl	(%eax), %ecx
     498: 93                           	xchgl	%ebx, %eax
     499: 01 72 1b                     	addl	%esi, 0x1b(%edx)
     49c: 23 09                        	andl	(%ecx), %ecx
     49e: 93                           	xchgl	%ebx, %eax
     49f: 01 72 1b                     	addl	%esi, 0x1b(%edx)
     4a2: 23 0a                        	andl	(%edx), %ecx
     4a4: 93                           	xchgl	%ebx, %eax
     4a5: 01 72 1b                     	addl	%esi, 0x1b(%edx)
     4a8: 23 0b                        	andl	(%ebx), %ecx
     4aa: 93                           	xchgl	%ebx, %eax
     4ab: 01 72 1b                     	addl	%esi, 0x1b(%edx)
     4ae: 23 0c 93                     	andl	(%ebx,%edx,4), %ecx
     4b1: 01 72 1b                     	addl	%esi, 0x1b(%edx)
     4b4: 23 0d 93 01 72 1b            	andl	0x1b720193, %ecx
     4ba: 23 0e                        	andl	(%esi), %ecx
     4bc: 93                           	xchgl	%ebx, %eax
     4bd: 01 72 1b                     	addl	%esi, 0x1b(%edx)
     4c0: 23 0f                        	andl	(%edi), %ecx
     4c2: 93                           	xchgl	%ebx, %eax
     4c3: 01 72 1b                     	addl	%esi, 0x1b(%edx)
     4c6: 23 10                        	andl	(%eax), %edx
     4c8: 93                           	xchgl	%ebx, %eax
     4c9: 01 04 c2                     	addl	%eax, (%edx,%eax,8)
     4cc: 04 c6                        	addb	$-0x3a, %al
     4ce: 04 50                        	addb	$0x50, %al
     4d0: 93                           	xchgl	%ebx, %eax
     4d1: 04 72                        	addb	$0x72, %al
     4d3: 1b 23                        	sbbl	(%ebx), %esp
     4d5: 04 93                        	addb	$-0x6d, %al
     4d7: 01 72 1b                     	addl	%esi, 0x1b(%edx)
     4da: 23 05 93 01 72 1b            	andl	0x1b720193, %eax
     4e0: 23 06                        	andl	(%esi), %eax
     4e2: 93                           	xchgl	%ebx, %eax
     4e3: 01 72 1b                     	addl	%esi, 0x1b(%edx)
     4e6: 23 07                        	andl	(%edi), %eax
     4e8: 93                           	xchgl	%ebx, %eax
     4e9: 01 72 1b                     	addl	%esi, 0x1b(%edx)
     4ec: 23 08                        	andl	(%eax), %ecx
     4ee: 93                           	xchgl	%ebx, %eax
     4ef: 01 72 1b                     	addl	%esi, 0x1b(%edx)
     4f2: 23 09                        	andl	(%ecx), %ecx
     4f4: 93                           	xchgl	%ebx, %eax
     4f5: 01 72 1b                     	addl	%esi, 0x1b(%edx)
     4f8: 23 0a                        	andl	(%edx), %ecx
     4fa: 93                           	xchgl	%ebx, %eax
     4fb: 01 72 1b                     	addl	%esi, 0x1b(%edx)
     4fe: 23 0b                        	andl	(%ebx), %ecx
     500: 93                           	xchgl	%ebx, %eax
     501: 01 72 1b                     	addl	%esi, 0x1b(%edx)
     504: 23 0c 93                     	andl	(%ebx,%edx,4), %ecx
     507: 01 72 1b                     	addl	%esi, 0x1b(%edx)
     50a: 23 0d 93 01 72 1b            	andl	0x1b720193, %ecx
     510: 23 0e                        	andl	(%esi), %ecx
     512: 93                           	xchgl	%ebx, %eax
     513: 01 72 1b                     	addl	%esi, 0x1b(%edx)
     516: 23 0f                        	andl	(%edi), %ecx
     518: 93                           	xchgl	%ebx, %eax
     519: 01 72 1b                     	addl	%esi, 0x1b(%edx)
     51c: 23 10                        	andl	(%eax), %edx
     51e: 93                           	xchgl	%ebx, %eax
     51f: 01 04 c6                     	addl	%eax, (%esi,%eax,8)
     522: 04 ca                        	addb	$-0x36, %al
     524: 04 56                        	addb	$0x56, %al
     526: 93                           	xchgl	%ebx, %eax
     527: 03 72 1b                     	addl	0x1b(%edx), %esi
     52a: 23 03                        	andl	(%ebx), %eax
     52c: 93                           	xchgl	%ebx, %eax
     52d: 01 72 1b                     	addl	%esi, 0x1b(%edx)
     530: 23 04 93                     	andl	(%ebx,%edx,4), %eax
     533: 01 72 1b                     	addl	%esi, 0x1b(%edx)
     536: 23 05 93 01 72 1b            	andl	0x1b720193, %eax
     53c: 23 06                        	andl	(%esi), %eax
     53e: 93                           	xchgl	%ebx, %eax
     53f: 01 72 1b                     	addl	%esi, 0x1b(%edx)
     542: 23 07                        	andl	(%edi), %eax
     544: 93                           	xchgl	%ebx, %eax
     545: 01 72 1b                     	addl	%esi, 0x1b(%edx)
     548: 23 08                        	andl	(%eax), %ecx
     54a: 93                           	xchgl	%ebx, %eax
     54b: 01 72 1b                     	addl	%esi, 0x1b(%edx)
     54e: 23 09                        	andl	(%ecx), %ecx
     550: 93                           	xchgl	%ebx, %eax
     551: 01 72 1b                     	addl	%esi, 0x1b(%edx)
     554: 23 0a                        	andl	(%edx), %ecx
     556: 93                           	xchgl	%ebx, %eax
     557: 01 72 1b                     	addl	%esi, 0x1b(%edx)
     55a: 23 0b                        	andl	(%ebx), %ecx
     55c: 93                           	xchgl	%ebx, %eax
     55d: 01 72 1b                     	addl	%esi, 0x1b(%edx)
     560: 23 0c 93                     	andl	(%ebx,%edx,4), %ecx
     563: 01 72 1b                     	addl	%esi, 0x1b(%edx)
     566: 23 0d 93 01 72 1b            	andl	0x1b720193, %ecx
     56c: 23 0e                        	andl	(%esi), %ecx
     56e: 93                           	xchgl	%ebx, %eax
     56f: 01 72 1b                     	addl	%esi, 0x1b(%edx)
     572: 23 0f                        	andl	(%edi), %ecx
     574: 93                           	xchgl	%ebx, %eax
     575: 01 72 1b                     	addl	%esi, 0x1b(%edx)
     578: 23 10                        	andl	(%eax), %edx
     57a: 93                           	xchgl	%ebx, %eax
     57b: 01 04 ca                     	addl	%eax, (%edx,%ecx,8)
     57e: 04 ce                        	addb	$-0x32, %al
     580: 04 5c                        	addb	$0x5c, %al
     582: 93                           	xchgl	%ebx, %eax
     583: 02 72 1b                     	addb	0x1b(%edx), %dh
     586: 23 02                        	andl	(%edx), %eax
     588: 93                           	xchgl	%ebx, %eax
     589: 01 72 1b                     	addl	%esi, 0x1b(%edx)
     58c: 23 03                        	andl	(%ebx), %eax
     58e: 93                           	xchgl	%ebx, %eax
     58f: 01 72 1b                     	addl	%esi, 0x1b(%edx)
     592: 23 04 93                     	andl	(%ebx,%edx,4), %eax
     595: 01 72 1b                     	addl	%esi, 0x1b(%edx)
     598: 23 05 93 01 72 1b            	andl	0x1b720193, %eax
     59e: 23 06                        	andl	(%esi), %eax
     5a0: 93                           	xchgl	%ebx, %eax
     5a1: 01 72 1b                     	addl	%esi, 0x1b(%edx)
     5a4: 23 07                        	andl	(%edi), %eax
     5a6: 93                           	xchgl	%ebx, %eax
     5a7: 01 72 1b                     	addl	%esi, 0x1b(%edx)
     5aa: 23 08                        	andl	(%eax), %ecx
     5ac: 93                           	xchgl	%ebx, %eax
     5ad: 01 72 1b                     	addl	%esi, 0x1b(%edx)
     5b0: 23 09                        	andl	(%ecx), %ecx
     5b2: 93                           	xchgl	%ebx, %eax
     5b3: 01 72 1b                     	addl	%esi, 0x1b(%edx)
     5b6: 23 0a                        	andl	(%edx), %ecx
     5b8: 93                           	xchgl	%ebx, %eax
     5b9: 01 72 1b                     	addl	%esi, 0x1b(%edx)
     5bc: 23 0b                        	andl	(%ebx), %ecx
     5be: 93                           	xchgl	%ebx, %eax
     5bf: 01 72 1b                     	addl	%esi, 0x1b(%edx)
     5c2: 23 0c 93                     	andl	(%ebx,%edx,4), %ecx
     5c5: 01 72 1b                     	addl	%esi, 0x1b(%edx)
     5c8: 23 0d 93 01 72 1b            	andl	0x1b720193, %ecx
     5ce: 23 0e                        	andl	(%esi), %ecx
     5d0: 93                           	xchgl	%ebx, %eax
     5d1: 01 72 1b                     	addl	%esi, 0x1b(%edx)
     5d4: 23 0f                        	andl	(%edi), %ecx
     5d6: 93                           	xchgl	%ebx, %eax
     5d7: 01 72 1b                     	addl	%esi, 0x1b(%edx)
     5da: 23 10                        	andl	(%eax), %edx
     5dc: 93                           	xchgl	%ebx, %eax
     5dd: 01 04 ce                     	addl	%eax, (%esi,%ecx,8)
     5e0: 04 94                        	addb	$-0x6c, %al
     5e2: 05 62 93 01 72               	addl	$0x72019362, %eax       # imm = 0x72019362
     5e7: 1b 23                        	sbbl	(%ebx), %esp
     5e9: 01 93 01 72 1b 23            	addl	%edx, 0x231b7201(%ebx)
     5ef: 02 93 01 72 1b 23            	addb	0x231b7201(%ebx), %dl
     5f5: 03 93 01 72 1b 23            	addl	0x231b7201(%ebx), %edx
     5fb: 04 93                        	addb	$-0x6d, %al
     5fd: 01 72 1b                     	addl	%esi, 0x1b(%edx)
     600: 23 05 93 01 72 1b            	andl	0x1b720193, %eax
     606: 23 06                        	andl	(%esi), %eax
     608: 93                           	xchgl	%ebx, %eax
     609: 01 72 1b                     	addl	%esi, 0x1b(%edx)
     60c: 23 07                        	andl	(%edi), %eax
     60e: 93                           	xchgl	%ebx, %eax
     60f: 01 72 1b                     	addl	%esi, 0x1b(%edx)
     612: 23 08                        	andl	(%eax), %ecx
     614: 93                           	xchgl	%ebx, %eax
     615: 01 72 1b                     	addl	%esi, 0x1b(%edx)
     618: 23 09                        	andl	(%ecx), %ecx
     61a: 93                           	xchgl	%ebx, %eax
     61b: 01 72 1b                     	addl	%esi, 0x1b(%edx)
     61e: 23 0a                        	andl	(%edx), %ecx
     620: 93                           	xchgl	%ebx, %eax
     621: 01 72 1b                     	addl	%esi, 0x1b(%edx)
     624: 23 0b                        	andl	(%ebx), %ecx
     626: 93                           	xchgl	%ebx, %eax
     627: 01 72 1b                     	addl	%esi, 0x1b(%edx)
     62a: 23 0c 93                     	andl	(%ebx,%edx,4), %ecx
     62d: 01 72 1b                     	addl	%esi, 0x1b(%edx)
     630: 23 0d 93 01 72 1b            	andl	0x1b720193, %ecx
     636: 23 0e                        	andl	(%esi), %ecx
     638: 93                           	xchgl	%ebx, %eax
     639: 01 72 1b                     	addl	%esi, 0x1b(%edx)
     63c: 23 0f                        	andl	(%edi), %ecx
     63e: 93                           	xchgl	%ebx, %eax
     63f: 01 72 1b                     	addl	%esi, 0x1b(%edx)
     642: 23 10                        	andl	(%eax), %edx
     644: 93                           	xchgl	%ebx, %eax
     645: 01 00                        	addl	%eax, (%eax)
     647: 01 04 04                     	addl	%eax, (%esp,%eax)
     64a: ae                           	scasb	%es:(%edi), %al
     64b: 03 bc 03 01 67 04 98         	addl	-0x67fb98ff(%ebx,%eax), %edi
     652: 04 9a                        	addb	$-0x66, %al
     654: 04 01                        	addb	$0x1, %al
     656: 5c                           	popl	%esp
     657: 04 b2                        	addb	$-0x4e, %al
     659: 04 ce                        	addb	$-0x32, %al
     65b: 04 02                        	addb	$0x2, %al
     65d: 30 9f 04 ce 04 94            	xorb	%bl, -0x6bfb31fc(%edi)
     663: 05 04 30 34 25               	addl	$0x25343004, %eax       # imm = 0x25343004
     668: 9f                           	lahf
     669: 00 01                        	addb	%al, (%ecx)
     66b: 04 04                        	addb	$0x4, %al
     66d: bc 03 f0 03 03               	movl	$0x303f003, %esp        # imm = 0x303F003
     672: 11 0e                        	adcl	%ecx, (%esi)
     674: 9f                           	lahf
     675: 04 f0                        	addb	$-0x10, %al
     677: 03 f4                        	addl	%esp, %esi
     679: 03 03                        	addl	(%ebx), %eax
     67b: 11 0d 9f 04 f4 03            	adcl	%ecx, 0x3f4049f
     681: f8                           	clc
     682: 03 03                        	addl	(%ebx), %eax
     684: 11 0c 9f                     	adcl	%ecx, (%edi,%ebx,4)
     687: 04 f8                        	addb	$-0x8, %al
     689: 03 fc                        	addl	%esp, %edi
     68b: 03 03                        	addl	(%ebx), %eax
     68d: 11 0b                        	adcl	%ecx, (%ebx)
     68f: 9f                           	lahf
     690: 04 fc                        	addb	$-0x4, %al
     692: 03 98 04 03 11 0a            	addl	0xa110304(%eax), %ebx
     698: 9f                           	lahf
     699: 04 98                        	addb	$-0x68, %al
     69b: 04 a2                        	addb	$-0x5e, %al
     69d: 04 03                        	addb	$0x3, %al
     69f: 11 08                        	adcl	%ecx, (%eax)
     6a1: 9f                           	lahf
     6a2: 04 a2                        	addb	$-0x5e, %al
     6a4: 04 aa                        	addb	$-0x56, %al
     6a6: 04 03                        	addb	$0x3, %al
     6a8: 11 09                        	adcl	%ecx, (%ecx)
     6aa: 9f                           	lahf
     6ab: 04 aa                        	addb	$-0x56, %al
     6ad: 04 b2                        	addb	$-0x4e, %al
     6af: 04 03                        	addb	$0x3, %al
     6b1: 11 0f                        	adcl	%ecx, (%edi)
     6b3: 9f                           	lahf
     6b4: 04 b2                        	addb	$-0x4e, %al
     6b6: 04 b6                        	addb	$-0x4a, %al
     6b8: 04 03                        	addb	$0x3, %al
     6ba: 11 07                        	adcl	%eax, (%edi)
     6bc: 9f                           	lahf
     6bd: 04 b6                        	addb	$-0x4a, %al
     6bf: 04 ba                        	addb	$-0x46, %al
     6c1: 04 03                        	addb	$0x3, %al
     6c3: 11 06                        	adcl	%eax, (%esi)
     6c5: 9f                           	lahf
     6c6: 04 ba                        	addb	$-0x46, %al
     6c8: 04 be                        	addb	$-0x42, %al
     6ca: 04 03                        	addb	$0x3, %al
     6cc: 11 05 9f 04 be 04            	adcl	%eax, 0x4be049f
     6d2: c2 04 03                     	retl	$0x304                  # imm = 0x304
     6d5: 11 04 9f                     	adcl	%eax, (%edi,%ebx,4)
     6d8: 04 c2                        	addb	$-0x3e, %al
     6da: 04 c6                        	addb	$-0x3a, %al
     6dc: 04 03                        	addb	$0x3, %al
     6de: 11 03                        	adcl	%eax, (%ebx)
     6e0: 9f                           	lahf
     6e1: 04 c6                        	addb	$-0x3a, %al
     6e3: 04 ca                        	addb	$-0x36, %al
     6e5: 04 03                        	addb	$0x3, %al
     6e7: 11 02                        	adcl	%eax, (%edx)
     6e9: 9f                           	lahf
     6ea: 04 ca                        	addb	$-0x36, %al
     6ec: 04 ce                        	addb	$-0x32, %al
     6ee: 04 03                        	addb	$0x3, %al
     6f0: 11 01                        	adcl	%eax, (%ecx)
     6f2: 9f                           	lahf
     6f3: 04 ce                        	addb	$-0x32, %al
     6f5: 04 fc                        	addb	$-0x4, %al
     6f7: 04 03                        	addb	$0x3, %al
     6f9: 11 7f 9f                     	adcl	%edi, -0x61(%edi)
     6fc: 00 01                        	addb	%al, (%ecx)
     6fe: 04 04                        	addb	$0x4, %al
     700: ce                           	into
     701: 04 e2                        	addb	$-0x1e, %al
     703: 04 03                        	addb	$0x3, %al
     705: 10 30                        	adcb	%dh, (%eax)
     707: 9f                           	lahf
     708: 04 e2                        	addb	$-0x1e, %al
     70a: 04 fc                        	addb	$-0x4, %al
     70c: 04 03                        	addb	$0x3, %al
     70e: 10 78 9f                     	adcb	%bh, -0x61(%eax)
     711: 00 01                        	addb	%al, (%ecx)
     713: 04 04                        	addb	$0x4, %al
     715: ce                           	into
     716: 04 e2                        	addb	$-0x1e, %al
     718: 04 03                        	addb	$0x3, %al
     71a: 11 00                        	adcl	%eax, (%eax)
     71c: 9f                           	lahf
     71d: 04 e2                        	addb	$-0x1e, %al
     71f: 04 fa                        	addb	$-0x6, %al
     721: 04 03                        	addb	$0x3, %al
     723: 11 01                        	adcl	%eax, (%ecx)
     725: 9f                           	lahf
     726: 04 fa                        	addb	$-0x6, %al
     728: 04 fc                        	addb	$-0x4, %al
     72a: 04 03                        	addb	$0x3, %al
     72c: 11 02                        	adcl	%eax, (%edx)
     72e: 9f                           	lahf
     72f: 00 01                        	addb	%al, (%ecx)
     731: 04 04                        	addb	$0x4, %al
     733: fc                           	cld
     734: 04 8c                        	addb	$-0x74, %al
     736: 05 09 78 00 11               	addl	$0x11007809, %eax       # imm = 0x11007809
     73b: 01 72 1b                     	addl	%esi, 0x1b(%edx)
     73e: 22 1c 9f                     	andb	(%edi,%ebx,4), %bl
     741: 04 8c                        	addb	$-0x74, %al
     743: 05 92 05 0c 78               	addl	$0x780c0592, %eax       # imm = 0x780C0592
     748: 00 11                        	addb	%dl, (%ecx)
     74a: 01 72 1b                     	addl	%esi, 0x1b(%edx)
     74d: 22 1c 11                     	andb	(%ecx,%edx), %bl
     750: 01 22                        	addl	%esp, (%edx)
     752: 9f                           	lahf
     753: 00 01                        	addb	%al, (%ecx)
     755: 04 04                        	addb	$0x4, %al
     757: 94                           	xchgl	%esp, %eax
     758: 05 a8 05 03 11               	addl	$0x110305a8, %eax       # imm = 0x110305A8
     75d: 00 9f 04 a8 05 bc            	addb	%bl, -0x43fa57fc(%edi)
     763: 05 03 11 01 9f               	addl	$0x9f011103, %eax       # imm = 0x9F011103
     768: 04 bc                        	addb	$-0x44, %al
     76a: 05 d0 05 03 11               	addl	$0x110305d0, %eax       # imm = 0x110305D0
     76f: 02 9f 04 d0 05 e4            	addb	-0x1bfa2ffc(%edi), %bl
     775: 05 03 11 03 9f               	addl	$0x9f031103, %eax       # imm = 0x9F031103
     77a: 04 e4                        	addb	$-0x1c, %al
     77c: 05 f8 05 03 11               	addl	$0x110305f8, %eax       # imm = 0x110305F8
     781: 04 9f                        	addb	$-0x61, %al
     783: 04 f8                        	addb	$-0x8, %al
     785: 05 8c 06 03 11               	addl	$0x1103068c, %eax       # imm = 0x1103068C
     78a: 05 9f 04 8c 06               	addl	$0x68c049f, %eax        # imm = 0x68C049F
     78f: a0 06 03 11 06               	movb	0x6110306, %al
     794: 9f                           	lahf
     795: 04 a0                        	addb	$-0x60, %al
     797: 06                           	pushl	%es
     798: b4 06                        	movb	$0x6, %ah
     79a: 03 11                        	addl	(%ecx), %edx
     79c: 07                           	popl	%es
     79d: 9f                           	lahf
     79e: 04 b4                        	addb	$-0x4c, %al
     7a0: 06                           	pushl	%es
     7a1: 84 08                        	testb	%cl, (%eax)
     7a3: 03 11                        	addl	(%ecx), %edx
     7a5: 08 9f 00 01 04 04            	orb	%bl, 0x4040100(%edi)
     7ab: 94                           	xchgl	%esp, %eax
     7ac: 05 a8 05 03 10               	addl	$0x100305a8, %eax       # imm = 0x100305A8
     7b1: 2c 9f                        	subb	$-0x61, %al
     7b3: 04 a8                        	addb	$-0x58, %al
     7b5: 05 bc 05 03 10               	addl	$0x100305bc, %eax       # imm = 0x100305BC
     7ba: 20 9f 04 bc 05 d0            	andb	%bl, -0x2ffa43fc(%edi)
     7c0: 05 03 10 65 9f               	addl	$0x9f651003, %eax       # imm = 0x9F651003
     7c5: 04 d0                        	addb	$-0x30, %al
     7c7: 05 e4 05 03 10               	addl	$0x100305e4, %eax       # imm = 0x100305E4
     7cc: 69 9f 04 e4 05 f8 05 03 10 64	imull	$0x64100305, -0x7fa1bfc(%edi), %ebx # imm = 0x64100305
     7d6: 9f                           	lahf
     7d7: 04 f8                        	addb	$-0x8, %al
     7d9: 05 8c 06 03 10               	addl	$0x1003068c, %eax       # imm = 0x1003068C
     7de: 20 9f 04 8c 06 a0            	andb	%bl, -0x5ff973fc(%edi)
     7e4: 06                           	pushl	%es
     7e5: 03 10                        	addl	(%eax), %edx
     7e7: 3d 9f 04 a0 06               	cmpl	$0x6a0049f, %eax        # imm = 0x6A0049F
     7ec: 84 08                        	testb	%cl, (%eax)
     7ee: 03 10                        	addl	(%eax), %edx
     7f0: 20 9f 00 01 04 04            	andb	%bl, 0x4040100(%edi)
     7f6: b4 06                        	movb	$0x6, %ah
     7f8: c2 06 01                     	retl	$0x106                  # imm = 0x106
     7fb: 66 04 9e                     	addb	$-0x62, %al
     7fe: 07                           	popl	%es
     7ff: a0 07 01 5c 04               	movb	0x45c0107, %al
     804: b8 07 d4 07 02               	movl	$0x207d407, %eax        # imm = 0x207D407
     809: 30 9f 04 d4 07 9c            	xorb	%bl, -0x63f82bfc(%edi)
     80f: 08 04 30                     	orb	%al, (%eax,%esi)
     812: 34 25                        	xorb	$0x25, %al
     814: 9f                           	lahf
     815: 00 01                        	addb	%al, (%ecx)
     817: 04 04                        	addb	$0x4, %al
     819: c2 06 f6                     	retl	$-0x9fa                 # imm = 0xF606
     81c: 06                           	pushl	%es
     81d: 08 93 0f 72 1b 23            	orb	%dl, 0x231b720f(%ebx)
     823: 0f 93 01                     	setae	(%ecx)
     826: 04 f6                        	addb	$-0xa, %al
     828: 06                           	pushl	%es
     829: fa                           	cli
     82a: 06                           	pushl	%es
     82b: 0e                           	pushl	%cs
     82c: 93                           	xchgl	%ebx, %eax
     82d: 0e                           	pushl	%cs
     82e: 72 1b                        	jb	0x84b <$d+0x84b>
     830: 23 0e                        	andl	(%esi), %ecx
     832: 93                           	xchgl	%ebx, %eax
     833: 01 72 1b                     	addl	%esi, 0x1b(%edx)
     836: 23 0f                        	andl	(%edi), %ecx
     838: 93                           	xchgl	%ebx, %eax
     839: 01 04 fa                     	addl	%eax, (%edx,%edi,8)
     83c: 06                           	pushl	%es
     83d: fe 06                        	incb	(%esi)
     83f: 14 93                        	adcb	$-0x6d, %al
     841: 0d 72 1b 23 0d               	orl	$0xd231b72, %eax        # imm = 0xD231B72
     846: 93                           	xchgl	%ebx, %eax
     847: 01 72 1b                     	addl	%esi, 0x1b(%edx)
     84a: 23 0e                        	andl	(%esi), %ecx
     84c: 93                           	xchgl	%ebx, %eax
     84d: 01 72 1b                     	addl	%esi, 0x1b(%edx)
     850: 23 0f                        	andl	(%edi), %ecx
     852: 93                           	xchgl	%ebx, %eax
     853: 01 04 fe                     	addl	%eax, (%esi,%edi,8)
     856: 06                           	pushl	%es
     857: 82 07 1a                     	addb	$0x1a, (%edi)
     85a: 93                           	xchgl	%ebx, %eax
     85b: 0c 72                        	orb	$0x72, %al
     85d: 1b 23                        	sbbl	(%ebx), %esp
     85f: 0c 93                        	orb	$-0x6d, %al
     861: 01 72 1b                     	addl	%esi, 0x1b(%edx)
     864: 23 0d 93 01 72 1b            	andl	0x1b720193, %ecx
     86a: 23 0e                        	andl	(%esi), %ecx
     86c: 93                           	xchgl	%ebx, %eax
     86d: 01 72 1b                     	addl	%esi, 0x1b(%edx)
     870: 23 0f                        	andl	(%edi), %ecx
     872: 93                           	xchgl	%ebx, %eax
     873: 01 04 82                     	addl	%eax, (%edx,%eax,4)
     876: 07                           	popl	%es
     877: a8 07                        	testb	$0x7, %al
     879: 20 93 0b 72 1b 23            	andb	%dl, 0x231b720b(%ebx)
     87f: 0b 93 01 72 1b 23            	orl	0x231b7201(%ebx), %edx
     885: 0c 93                        	orb	$-0x6d, %al
     887: 01 72 1b                     	addl	%esi, 0x1b(%edx)
     88a: 23 0d 93 01 72 1b            	andl	0x1b720193, %ecx
     890: 23 0e                        	andl	(%esi), %ecx
     892: 93                           	xchgl	%ebx, %eax
     893: 01 72 1b                     	addl	%esi, 0x1b(%edx)
     896: 23 0f                        	andl	(%edi), %ecx
     898: 93                           	xchgl	%ebx, %eax
     899: 01 04 a8                     	addl	%eax, (%eax,%ebp,4)
     89c: 07                           	popl	%es
     89d: ac                           	lodsb	(%esi), %al
     89e: 07                           	popl	%es
     89f: 26 93                        	xchgl	%ebx, %eax
     8a1: 0a 72 1b                     	orb	0x1b(%edx), %dh
     8a4: 23 0a                        	andl	(%edx), %ecx
     8a6: 93                           	xchgl	%ebx, %eax
     8a7: 01 72 1b                     	addl	%esi, 0x1b(%edx)
     8aa: 23 0b                        	andl	(%ebx), %ecx
     8ac: 93                           	xchgl	%ebx, %eax
     8ad: 01 72 1b                     	addl	%esi, 0x1b(%edx)
     8b0: 23 0c 93                     	andl	(%ebx,%edx,4), %ecx
     8b3: 01 72 1b                     	addl	%esi, 0x1b(%edx)
     8b6: 23 0d 93 01 72 1b            	andl	0x1b720193, %ecx
     8bc: 23 0e                        	andl	(%esi), %ecx
     8be: 93                           	xchgl	%ebx, %eax
     8bf: 01 72 1b                     	addl	%esi, 0x1b(%edx)
     8c2: 23 0f                        	andl	(%edi), %ecx
     8c4: 93                           	xchgl	%ebx, %eax
     8c5: 01 04 ac                     	addl	%eax, (%esp,%ebp,4)
     8c8: 07                           	popl	%es
     8c9: b0 07                        	movb	$0x7, %al
     8cb: 2c 93                        	subb	$-0x6d, %al
     8cd: 09 72 1b                     	orl	%esi, 0x1b(%edx)
     8d0: 23 09                        	andl	(%ecx), %ecx
     8d2: 93                           	xchgl	%ebx, %eax
     8d3: 01 72 1b                     	addl	%esi, 0x1b(%edx)
     8d6: 23 0a                        	andl	(%edx), %ecx
     8d8: 93                           	xchgl	%ebx, %eax
     8d9: 01 72 1b                     	addl	%esi, 0x1b(%edx)
     8dc: 23 0b                        	andl	(%ebx), %ecx
     8de: 93                           	xchgl	%ebx, %eax
     8df: 01 72 1b                     	addl	%esi, 0x1b(%edx)
     8e2: 23 0c 93                     	andl	(%ebx,%edx,4), %ecx
     8e5: 01 72 1b                     	addl	%esi, 0x1b(%edx)
     8e8: 23 0d 93 01 72 1b            	andl	0x1b720193, %ecx
     8ee: 23 0e                        	andl	(%esi), %ecx
     8f0: 93                           	xchgl	%ebx, %eax
     8f1: 01 72 1b                     	addl	%esi, 0x1b(%edx)
     8f4: 23 0f                        	andl	(%edi), %ecx
     8f6: 93                           	xchgl	%ebx, %eax
     8f7: 01 04 b0                     	addl	%eax, (%eax,%esi,4)
     8fa: 07                           	popl	%es
     8fb: b8 07 32 93 09               	movl	$0x9933207, %eax        # imm = 0x9933207
     900: 72 1b                        	jb	0x91d <$d+0x91d>
     902: 23 09                        	andl	(%ecx), %ecx
     904: 93                           	xchgl	%ebx, %eax
     905: 01 72 1b                     	addl	%esi, 0x1b(%edx)
     908: 23 0a                        	andl	(%edx), %ecx
     90a: 93                           	xchgl	%ebx, %eax
     90b: 01 72 1b                     	addl	%esi, 0x1b(%edx)
     90e: 23 0b                        	andl	(%ebx), %ecx
     910: 93                           	xchgl	%ebx, %eax
     911: 01 72 1b                     	addl	%esi, 0x1b(%edx)
     914: 23 0c 93                     	andl	(%ebx,%edx,4), %ecx
     917: 01 72 1b                     	addl	%esi, 0x1b(%edx)
     91a: 23 0d 93 01 72 1b            	andl	0x1b720193, %ecx
     920: 23 0e                        	andl	(%esi), %ecx
     922: 93                           	xchgl	%ebx, %eax
     923: 01 72 1b                     	addl	%esi, 0x1b(%edx)
     926: 23 0f                        	andl	(%edi), %ecx
     928: 93                           	xchgl	%ebx, %eax
     929: 01 72 1b                     	addl	%esi, 0x1b(%edx)
     92c: 23 10                        	andl	(%eax), %edx
     92e: 93                           	xchgl	%ebx, %eax
     92f: 01 04 b8                     	addl	%eax, (%eax,%edi,4)
     932: 07                           	popl	%es
     933: bc 07 38 93 08               	movl	$0x8933807, %esp        # imm = 0x8933807
     938: 72 1b                        	jb	0x955 <$d+0x955>
     93a: 23 08                        	andl	(%eax), %ecx
     93c: 93                           	xchgl	%ebx, %eax
     93d: 01 72 1b                     	addl	%esi, 0x1b(%edx)
     940: 23 09                        	andl	(%ecx), %ecx
     942: 93                           	xchgl	%ebx, %eax
     943: 01 72 1b                     	addl	%esi, 0x1b(%edx)
     946: 23 0a                        	andl	(%edx), %ecx
     948: 93                           	xchgl	%ebx, %eax
     949: 01 72 1b                     	addl	%esi, 0x1b(%edx)
     94c: 23 0b                        	andl	(%ebx), %ecx
     94e: 93                           	xchgl	%ebx, %eax
     94f: 01 72 1b                     	addl	%esi, 0x1b(%edx)
     952: 23 0c 93                     	andl	(%ebx,%edx,4), %ecx
     955: 01 72 1b                     	addl	%esi, 0x1b(%edx)
     958: 23 0d 93 01 72 1b            	andl	0x1b720193, %ecx
     95e: 23 0e                        	andl	(%esi), %ecx
     960: 93                           	xchgl	%ebx, %eax
     961: 01 72 1b                     	addl	%esi, 0x1b(%edx)
     964: 23 0f                        	andl	(%edi), %ecx
     966: 93                           	xchgl	%ebx, %eax
     967: 01 72 1b                     	addl	%esi, 0x1b(%edx)
     96a: 23 10                        	andl	(%eax), %edx
     96c: 93                           	xchgl	%ebx, %eax
     96d: 01 04 bc                     	addl	%eax, (%esp,%edi,4)
     970: 07                           	popl	%es
     971: c0 07 3e                     	rolb	$0x3e, (%edi)
     974: 93                           	xchgl	%ebx, %eax
     975: 07                           	popl	%es
     976: 72 1b                        	jb	0x993 <$d+0x993>
     978: 23 07                        	andl	(%edi), %eax
     97a: 93                           	xchgl	%ebx, %eax
     97b: 01 72 1b                     	addl	%esi, 0x1b(%edx)
     97e: 23 08                        	andl	(%eax), %ecx
     980: 93                           	xchgl	%ebx, %eax
     981: 01 72 1b                     	addl	%esi, 0x1b(%edx)
     984: 23 09                        	andl	(%ecx), %ecx
     986: 93                           	xchgl	%ebx, %eax
     987: 01 72 1b                     	addl	%esi, 0x1b(%edx)
     98a: 23 0a                        	andl	(%edx), %ecx
     98c: 93                           	xchgl	%ebx, %eax
     98d: 01 72 1b                     	addl	%esi, 0x1b(%edx)
     990: 23 0b                        	andl	(%ebx), %ecx
     992: 93                           	xchgl	%ebx, %eax
     993: 01 72 1b                     	addl	%esi, 0x1b(%edx)
     996: 23 0c 93                     	andl	(%ebx,%edx,4), %ecx
     999: 01 72 1b                     	addl	%esi, 0x1b(%edx)
     99c: 23 0d 93 01 72 1b            	andl	0x1b720193, %ecx
     9a2: 23 0e                        	andl	(%esi), %ecx
     9a4: 93                           	xchgl	%ebx, %eax
     9a5: 01 72 1b                     	addl	%esi, 0x1b(%edx)
     9a8: 23 0f                        	andl	(%edi), %ecx
     9aa: 93                           	xchgl	%ebx, %eax
     9ab: 01 72 1b                     	addl	%esi, 0x1b(%edx)
     9ae: 23 10                        	andl	(%eax), %edx
     9b0: 93                           	xchgl	%ebx, %eax
     9b1: 01 04 c0                     	addl	%eax, (%eax,%eax,8)
     9b4: 07                           	popl	%es
     9b5: c4 07                        	lesl	(%edi), %eax
     9b7: 44                           	incl	%esp
     9b8: 93                           	xchgl	%ebx, %eax
     9b9: 06                           	pushl	%es
     9ba: 72 1b                        	jb	0x9d7 <$d+0x9d7>
     9bc: 23 06                        	andl	(%esi), %eax
     9be: 93                           	xchgl	%ebx, %eax
     9bf: 01 72 1b                     	addl	%esi, 0x1b(%edx)
     9c2: 23 07                        	andl	(%edi), %eax
     9c4: 93                           	xchgl	%ebx, %eax
     9c5: 01 72 1b                     	addl	%esi, 0x1b(%edx)
     9c8: 23 08                        	andl	(%eax), %ecx
     9ca: 93                           	xchgl	%ebx, %eax
     9cb: 01 72 1b                     	addl	%esi, 0x1b(%edx)
     9ce: 23 09                        	andl	(%ecx), %ecx
     9d0: 93                           	xchgl	%ebx, %eax
     9d1: 01 72 1b                     	addl	%esi, 0x1b(%edx)
     9d4: 23 0a                        	andl	(%edx), %ecx
     9d6: 93                           	xchgl	%ebx, %eax
     9d7: 01 72 1b                     	addl	%esi, 0x1b(%edx)
     9da: 23 0b                        	andl	(%ebx), %ecx
     9dc: 93                           	xchgl	%ebx, %eax
     9dd: 01 72 1b                     	addl	%esi, 0x1b(%edx)
     9e0: 23 0c 93                     	andl	(%ebx,%edx,4), %ecx
     9e3: 01 72 1b                     	addl	%esi, 0x1b(%edx)
     9e6: 23 0d 93 01 72 1b            	andl	0x1b720193, %ecx
     9ec: 23 0e                        	andl	(%esi), %ecx
     9ee: 93                           	xchgl	%ebx, %eax
     9ef: 01 72 1b                     	addl	%esi, 0x1b(%edx)
     9f2: 23 0f                        	andl	(%edi), %ecx
     9f4: 93                           	xchgl	%ebx, %eax
     9f5: 01 72 1b                     	addl	%esi, 0x1b(%edx)
     9f8: 23 10                        	andl	(%eax), %edx
     9fa: 93                           	xchgl	%ebx, %eax
     9fb: 01 04 c4                     	addl	%eax, (%esp,%eax,8)
     9fe: 07                           	popl	%es
     9ff: c8 07 4a 93                  	enter	$0x4a07, $-0x6d         # imm = 0x4A07
     a03: 05 72 1b 23 05               	addl	$0x5231b72, %eax        # imm = 0x5231B72
     a08: 93                           	xchgl	%ebx, %eax
     a09: 01 72 1b                     	addl	%esi, 0x1b(%edx)
     a0c: 23 06                        	andl	(%esi), %eax
     a0e: 93                           	xchgl	%ebx, %eax
     a0f: 01 72 1b                     	addl	%esi, 0x1b(%edx)
     a12: 23 07                        	andl	(%edi), %eax
     a14: 93                           	xchgl	%ebx, %eax
     a15: 01 72 1b                     	addl	%esi, 0x1b(%edx)
     a18: 23 08                        	andl	(%eax), %ecx
     a1a: 93                           	xchgl	%ebx, %eax
     a1b: 01 72 1b                     	addl	%esi, 0x1b(%edx)
     a1e: 23 09                        	andl	(%ecx), %ecx
     a20: 93                           	xchgl	%ebx, %eax
     a21: 01 72 1b                     	addl	%esi, 0x1b(%edx)
     a24: 23 0a                        	andl	(%edx), %ecx
     a26: 93                           	xchgl	%ebx, %eax
     a27: 01 72 1b                     	addl	%esi, 0x1b(%edx)
     a2a: 23 0b                        	andl	(%ebx), %ecx
     a2c: 93                           	xchgl	%ebx, %eax
     a2d: 01 72 1b                     	addl	%esi, 0x1b(%edx)
     a30: 23 0c 93                     	andl	(%ebx,%edx,4), %ecx
     a33: 01 72 1b                     	addl	%esi, 0x1b(%edx)
     a36: 23 0d 93 01 72 1b            	andl	0x1b720193, %ecx
     a3c: 23 0e                        	andl	(%esi), %ecx
     a3e: 93                           	xchgl	%ebx, %eax
     a3f: 01 72 1b                     	addl	%esi, 0x1b(%edx)
     a42: 23 0f                        	andl	(%edi), %ecx
     a44: 93                           	xchgl	%ebx, %eax
     a45: 01 72 1b                     	addl	%esi, 0x1b(%edx)
     a48: 23 10                        	andl	(%eax), %edx
     a4a: 93                           	xchgl	%ebx, %eax
     a4b: 01 04 c8                     	addl	%eax, (%eax,%ecx,8)
     a4e: 07                           	popl	%es
     a4f: cc                           	int3
     a50: 07                           	popl	%es
     a51: 50                           	pushl	%eax
     a52: 93                           	xchgl	%ebx, %eax
     a53: 04 72                        	addb	$0x72, %al
     a55: 1b 23                        	sbbl	(%ebx), %esp
     a57: 04 93                        	addb	$-0x6d, %al
     a59: 01 72 1b                     	addl	%esi, 0x1b(%edx)
     a5c: 23 05 93 01 72 1b            	andl	0x1b720193, %eax
     a62: 23 06                        	andl	(%esi), %eax
     a64: 93                           	xchgl	%ebx, %eax
     a65: 01 72 1b                     	addl	%esi, 0x1b(%edx)
     a68: 23 07                        	andl	(%edi), %eax
     a6a: 93                           	xchgl	%ebx, %eax
     a6b: 01 72 1b                     	addl	%esi, 0x1b(%edx)
     a6e: 23 08                        	andl	(%eax), %ecx
     a70: 93                           	xchgl	%ebx, %eax
     a71: 01 72 1b                     	addl	%esi, 0x1b(%edx)
     a74: 23 09                        	andl	(%ecx), %ecx
     a76: 93                           	xchgl	%ebx, %eax
     a77: 01 72 1b                     	addl	%esi, 0x1b(%edx)
     a7a: 23 0a                        	andl	(%edx), %ecx
     a7c: 93                           	xchgl	%ebx, %eax
     a7d: 01 72 1b                     	addl	%esi, 0x1b(%edx)
     a80: 23 0b                        	andl	(%ebx), %ecx
     a82: 93                           	xchgl	%ebx, %eax
     a83: 01 72 1b                     	addl	%esi, 0x1b(%edx)
     a86: 23 0c 93                     	andl	(%ebx,%edx,4), %ecx
     a89: 01 72 1b                     	addl	%esi, 0x1b(%edx)
     a8c: 23 0d 93 01 72 1b            	andl	0x1b720193, %ecx
     a92: 23 0e                        	andl	(%esi), %ecx
     a94: 93                           	xchgl	%ebx, %eax
     a95: 01 72 1b                     	addl	%esi, 0x1b(%edx)
     a98: 23 0f                        	andl	(%edi), %ecx
     a9a: 93                           	xchgl	%ebx, %eax
     a9b: 01 72 1b                     	addl	%esi, 0x1b(%edx)
     a9e: 23 10                        	andl	(%eax), %edx
     aa0: 93                           	xchgl	%ebx, %eax
     aa1: 01 04 cc                     	addl	%eax, (%esp,%ecx,8)
     aa4: 07                           	popl	%es
     aa5: d0 07                        	rolb	(%edi)
     aa7: 56                           	pushl	%esi
     aa8: 93                           	xchgl	%ebx, %eax
     aa9: 03 72 1b                     	addl	0x1b(%edx), %esi
     aac: 23 03                        	andl	(%ebx), %eax
     aae: 93                           	xchgl	%ebx, %eax
     aaf: 01 72 1b                     	addl	%esi, 0x1b(%edx)
     ab2: 23 04 93                     	andl	(%ebx,%edx,4), %eax
     ab5: 01 72 1b                     	addl	%esi, 0x1b(%edx)
     ab8: 23 05 93 01 72 1b            	andl	0x1b720193, %eax
     abe: 23 06                        	andl	(%esi), %eax
     ac0: 93                           	xchgl	%ebx, %eax
     ac1: 01 72 1b                     	addl	%esi, 0x1b(%edx)
     ac4: 23 07                        	andl	(%edi), %eax
     ac6: 93                           	xchgl	%ebx, %eax
     ac7: 01 72 1b                     	addl	%esi, 0x1b(%edx)
     aca: 23 08                        	andl	(%eax), %ecx
     acc: 93                           	xchgl	%ebx, %eax
     acd: 01 72 1b                     	addl	%esi, 0x1b(%edx)
     ad0: 23 09                        	andl	(%ecx), %ecx
     ad2: 93                           	xchgl	%ebx, %eax
     ad3: 01 72 1b                     	addl	%esi, 0x1b(%edx)
     ad6: 23 0a                        	andl	(%edx), %ecx
     ad8: 93                           	xchgl	%ebx, %eax
     ad9: 01 72 1b                     	addl	%esi, 0x1b(%edx)
     adc: 23 0b                        	andl	(%ebx), %ecx
     ade: 93                           	xchgl	%ebx, %eax
     adf: 01 72 1b                     	addl	%esi, 0x1b(%edx)
     ae2: 23 0c 93                     	andl	(%ebx,%edx,4), %ecx
     ae5: 01 72 1b                     	addl	%esi, 0x1b(%edx)
     ae8: 23 0d 93 01 72 1b            	andl	0x1b720193, %ecx
     aee: 23 0e                        	andl	(%esi), %ecx
     af0: 93                           	xchgl	%ebx, %eax
     af1: 01 72 1b                     	addl	%esi, 0x1b(%edx)
     af4: 23 0f                        	andl	(%edi), %ecx
     af6: 93                           	xchgl	%ebx, %eax
     af7: 01 72 1b                     	addl	%esi, 0x1b(%edx)
     afa: 23 10                        	andl	(%eax), %edx
     afc: 93                           	xchgl	%ebx, %eax
     afd: 01 04 d0                     	addl	%eax, (%eax,%edx,8)
     b00: 07                           	popl	%es
     b01: d4 07                        	aam	$0x7
     b03: 5c                           	popl	%esp
     b04: 93                           	xchgl	%ebx, %eax
     b05: 02 72 1b                     	addb	0x1b(%edx), %dh
     b08: 23 02                        	andl	(%edx), %eax
     b0a: 93                           	xchgl	%ebx, %eax
     b0b: 01 72 1b                     	addl	%esi, 0x1b(%edx)
     b0e: 23 03                        	andl	(%ebx), %eax
     b10: 93                           	xchgl	%ebx, %eax
     b11: 01 72 1b                     	addl	%esi, 0x1b(%edx)
     b14: 23 04 93                     	andl	(%ebx,%edx,4), %eax
     b17: 01 72 1b                     	addl	%esi, 0x1b(%edx)
     b1a: 23 05 93 01 72 1b            	andl	0x1b720193, %eax
     b20: 23 06                        	andl	(%esi), %eax
     b22: 93                           	xchgl	%ebx, %eax
     b23: 01 72 1b                     	addl	%esi, 0x1b(%edx)
     b26: 23 07                        	andl	(%edi), %eax
     b28: 93                           	xchgl	%ebx, %eax
     b29: 01 72 1b                     	addl	%esi, 0x1b(%edx)
     b2c: 23 08                        	andl	(%eax), %ecx
     b2e: 93                           	xchgl	%ebx, %eax
     b2f: 01 72 1b                     	addl	%esi, 0x1b(%edx)
     b32: 23 09                        	andl	(%ecx), %ecx
     b34: 93                           	xchgl	%ebx, %eax
     b35: 01 72 1b                     	addl	%esi, 0x1b(%edx)
     b38: 23 0a                        	andl	(%edx), %ecx
     b3a: 93                           	xchgl	%ebx, %eax
     b3b: 01 72 1b                     	addl	%esi, 0x1b(%edx)
     b3e: 23 0b                        	andl	(%ebx), %ecx
     b40: 93                           	xchgl	%ebx, %eax
     b41: 01 72 1b                     	addl	%esi, 0x1b(%edx)
     b44: 23 0c 93                     	andl	(%ebx,%edx,4), %ecx
     b47: 01 72 1b                     	addl	%esi, 0x1b(%edx)
     b4a: 23 0d 93 01 72 1b            	andl	0x1b720193, %ecx
     b50: 23 0e                        	andl	(%esi), %ecx
     b52: 93                           	xchgl	%ebx, %eax
     b53: 01 72 1b                     	addl	%esi, 0x1b(%edx)
     b56: 23 0f                        	andl	(%edi), %ecx
     b58: 93                           	xchgl	%ebx, %eax
     b59: 01 72 1b                     	addl	%esi, 0x1b(%edx)
     b5c: 23 10                        	andl	(%eax), %edx
     b5e: 93                           	xchgl	%ebx, %eax
     b5f: 01 04 d4                     	addl	%eax, (%esp,%edx,8)
     b62: 07                           	popl	%es
     b63: 9c                           	pushfl
     b64: 08 62 93                     	orb	%ah, -0x6d(%edx)
     b67: 01 72 1b                     	addl	%esi, 0x1b(%edx)
     b6a: 23 01                        	andl	(%ecx), %eax
     b6c: 93                           	xchgl	%ebx, %eax
     b6d: 01 72 1b                     	addl	%esi, 0x1b(%edx)
     b70: 23 02                        	andl	(%edx), %eax
     b72: 93                           	xchgl	%ebx, %eax
     b73: 01 72 1b                     	addl	%esi, 0x1b(%edx)
     b76: 23 03                        	andl	(%ebx), %eax
     b78: 93                           	xchgl	%ebx, %eax
     b79: 01 72 1b                     	addl	%esi, 0x1b(%edx)
     b7c: 23 04 93                     	andl	(%ebx,%edx,4), %eax
     b7f: 01 72 1b                     	addl	%esi, 0x1b(%edx)
     b82: 23 05 93 01 72 1b            	andl	0x1b720193, %eax
     b88: 23 06                        	andl	(%esi), %eax
     b8a: 93                           	xchgl	%ebx, %eax
     b8b: 01 72 1b                     	addl	%esi, 0x1b(%edx)
     b8e: 23 07                        	andl	(%edi), %eax
     b90: 93                           	xchgl	%ebx, %eax
     b91: 01 72 1b                     	addl	%esi, 0x1b(%edx)
     b94: 23 08                        	andl	(%eax), %ecx
     b96: 93                           	xchgl	%ebx, %eax
     b97: 01 72 1b                     	addl	%esi, 0x1b(%edx)
     b9a: 23 09                        	andl	(%ecx), %ecx
     b9c: 93                           	xchgl	%ebx, %eax
     b9d: 01 72 1b                     	addl	%esi, 0x1b(%edx)
     ba0: 23 0a                        	andl	(%edx), %ecx
     ba2: 93                           	xchgl	%ebx, %eax
     ba3: 01 72 1b                     	addl	%esi, 0x1b(%edx)
     ba6: 23 0b                        	andl	(%ebx), %ecx
     ba8: 93                           	xchgl	%ebx, %eax
     ba9: 01 72 1b                     	addl	%esi, 0x1b(%edx)
     bac: 23 0c 93                     	andl	(%ebx,%edx,4), %ecx
     baf: 01 72 1b                     	addl	%esi, 0x1b(%edx)
     bb2: 23 0d 93 01 72 1b            	andl	0x1b720193, %ecx
     bb8: 23 0e                        	andl	(%esi), %ecx
     bba: 93                           	xchgl	%ebx, %eax
     bbb: 01 72 1b                     	addl	%esi, 0x1b(%edx)
     bbe: 23 0f                        	andl	(%edi), %ecx
     bc0: 93                           	xchgl	%ebx, %eax
     bc1: 01 72 1b                     	addl	%esi, 0x1b(%edx)
     bc4: 23 10                        	andl	(%eax), %edx
     bc6: 93                           	xchgl	%ebx, %eax
     bc7: 01 00                        	addl	%eax, (%eax)
     bc9: 01 04 04                     	addl	%eax, (%esp,%eax)
     bcc: c2 06 f6                     	retl	$-0x9fa                 # imm = 0xF606
     bcf: 06                           	pushl	%es
     bd0: 03 11                        	addl	(%ecx), %edx
     bd2: 0e                           	pushl	%cs
     bd3: 9f                           	lahf
     bd4: 04 f6                        	addb	$-0xa, %al
     bd6: 06                           	pushl	%es
     bd7: fa                           	cli
     bd8: 06                           	pushl	%es
     bd9: 03 11                        	addl	(%ecx), %edx
     bdb: 0d 9f 04 fa 06               	orl	$0x6fa049f, %eax        # imm = 0x6FA049F
     be0: fe 06                        	incb	(%esi)
     be2: 03 11                        	addl	(%ecx), %edx
     be4: 0c 9f                        	orb	$-0x61, %al
     be6: 04 fe                        	addb	$-0x2, %al
     be8: 06                           	pushl	%es
     be9: 82 07 03                     	addb	$0x3, (%edi)
     bec: 11 0b                        	adcl	%ecx, (%ebx)
     bee: 9f                           	lahf
     bef: 04 82                        	addb	$-0x7e, %al
     bf1: 07                           	popl	%es
     bf2: 9e                           	sahf
     bf3: 07                           	popl	%es
     bf4: 03 11                        	addl	(%ecx), %edx
     bf6: 0a 9f 04 9e 07 a8            	orb	-0x57f861fc(%edi), %bl
     bfc: 07                           	popl	%es
     bfd: 03 11                        	addl	(%ecx), %edx
     bff: 08 9f 04 a8 07 b0            	orb	%bl, -0x4ff857fc(%edi)
     c05: 07                           	popl	%es
     c06: 03 11                        	addl	(%ecx), %edx
     c08: 09 9f 04 b0 07 b8            	orl	%ebx, -0x47f84ffc(%edi)
     c0e: 07                           	popl	%es
     c0f: 03 11                        	addl	(%ecx), %edx
     c11: 0f 9f 04 b8                  	setg	(%eax,%edi,4)
     c15: 07                           	popl	%es
     c16: bc 07 03 11 07               	movl	$0x7110307, %esp        # imm = 0x7110307
     c1b: 9f                           	lahf
     c1c: 04 bc                        	addb	$-0x44, %al
     c1e: 07                           	popl	%es
     c1f: c0 07 03                     	rolb	$0x3, (%edi)
     c22: 11 06                        	adcl	%eax, (%esi)
     c24: 9f                           	lahf
     c25: 04 c0                        	addb	$-0x40, %al
     c27: 07                           	popl	%es
     c28: c4 07                        	lesl	(%edi), %eax
     c2a: 03 11                        	addl	(%ecx), %edx
     c2c: 05 9f 04 c4 07               	addl	$0x7c4049f, %eax        # imm = 0x7C4049F
     c31: c8 07 03 11                  	enter	$0x307, $0x11           # imm = 0x307
     c35: 04 9f                        	addb	$-0x61, %al
     c37: 04 c8                        	addb	$-0x38, %al
     c39: 07                           	popl	%es
     c3a: cc                           	int3
     c3b: 07                           	popl	%es
     c3c: 03 11                        	addl	(%ecx), %edx
     c3e: 03 9f 04 cc 07 d0            	addl	-0x2ff833fc(%edi), %ebx
     c44: 07                           	popl	%es
     c45: 03 11                        	addl	(%ecx), %edx
     c47: 02 9f 04 d0 07 d4            	addb	-0x2bf82ffc(%edi), %bl
     c4d: 07                           	popl	%es
     c4e: 03 11                        	addl	(%ecx), %edx
     c50: 01 9f 04 d4 07 84            	addl	%ebx, -0x7bf82bfc(%edi)
     c56: 08 03                        	orb	%al, (%ebx)
     c58: 11 7f 9f                     	adcl	%edi, -0x61(%edi)
     c5b: 00 01                        	addb	%al, (%ecx)
     c5d: 04 04                        	addb	$0x4, %al
     c5f: d4 07                        	aam	$0x7
     c61: e8 07 03 10 30               	calll	0x30100f6d <$d+0x30100f6d>
     c66: 9f                           	lahf
     c67: 04 e8                        	addb	$-0x18, %al
     c69: 07                           	popl	%es
     c6a: 84 08                        	testb	%cl, (%eax)
     c6c: 03 10                        	addl	(%eax), %edx
     c6e: 78 9f                        	js	0xc0f <$d+0xc0f>
     c70: 00 01                        	addb	%al, (%ecx)
     c72: 04 04                        	addb	$0x4, %al
     c74: d4 07                        	aam	$0x7
     c76: e8 07 03 11 00               	calll	0x110f82 <$d+0x110f82>
     c7b: 9f                           	lahf
     c7c: 04 e8                        	addb	$-0x18, %al
     c7e: 07                           	popl	%es
     c7f: 80 08 03                     	orb	$0x3, (%eax)
     c82: 11 01                        	adcl	%eax, (%ecx)
     c84: 9f                           	lahf
     c85: 04 80                        	addb	$-0x80, %al
     c87: 08 84 08 03 11 02 9f         	orb	%al, -0x60fdeefd(%eax,%ecx)
     c8e: 00 01                        	addb	%al, (%ecx)
     c90: 04 04                        	addb	$0x4, %al
     c92: 84 08                        	testb	%cl, (%eax)
     c94: 94                           	xchgl	%esp, %eax
     c95: 08 09                        	orb	%cl, (%ecx)
     c97: 8a 00                        	movb	(%eax), %al
     c99: 11 01                        	adcl	%eax, (%ecx)
     c9b: 72 1b                        	jb	0xcb8 <$d+0xcb8>
     c9d: 22 1c 9f                     	andb	(%edi,%ebx,4), %bl
     ca0: 04 94                        	addb	$-0x6c, %al
     ca2: 08 9a 08 0c 8a 00            	orb	%bl, 0x8a0c08(%edx)
     ca8: 11 01                        	adcl	%eax, (%ecx)
     caa: 72 1b                        	jb	0xcc7 <$d+0xcc7>
     cac: 22 1c 11                     	andb	(%ecx,%edx), %bl
     caf: 01 22                        	addl	%esp, (%edx)
     cb1: 9f                           	lahf
     cb2: 00 01                        	addb	%al, (%ecx)
     cb4: 04 04                        	addb	$0x4, %al
     cb6: 9c                           	pushfl
     cb7: 08 b0 08 03 11 00            	orb	%dh, 0x110308(%eax)
     cbd: 9f                           	lahf
     cbe: 04 b0                        	addb	$-0x50, %al
     cc0: 08 c4                        	orb	%al, %ah
     cc2: 08 03                        	orb	%al, (%ebx)
     cc4: 11 01                        	adcl	%eax, (%ecx)
     cc6: 9f                           	lahf
     cc7: 04 c4                        	addb	$-0x3c, %al
     cc9: 08 d8                        	orb	%bl, %al
     ccb: 08 03                        	orb	%al, (%ebx)
     ccd: 11 02                        	adcl	%eax, (%edx)
     ccf: 9f                           	lahf
     cd0: 04 d8                        	addb	$-0x28, %al
     cd2: 08 ec                        	orb	%ch, %ah
     cd4: 08 03                        	orb	%al, (%ebx)
     cd6: 11 03                        	adcl	%eax, (%ebx)
     cd8: 9f                           	lahf
     cd9: 04 ec                        	addb	$-0x14, %al
     cdb: 08 80 09 03 11 04            	orb	%al, 0x4110309(%eax)
     ce1: 9f                           	lahf
     ce2: 04 80                        	addb	$-0x80, %al
     ce4: 09 94 09 03 11 05 9f         	orl	%edx, -0x60faeefd(%ecx,%ecx)
     ceb: 04 94                        	addb	$-0x6c, %al
     ced: 09 a8 09 03 11 06            	orl	%ebp, 0x6110309(%eax)
     cf3: 9f                           	lahf
     cf4: 04 a8                        	addb	$-0x58, %al
     cf6: 09 bc 09 03 11 07 9f         	orl	%edi, -0x60f8eefd(%ecx,%ecx)
     cfd: 04 bc                        	addb	$-0x44, %al
     cff: 09 d0                        	orl	%edx, %eax
     d01: 09 03                        	orl	%eax, (%ebx)
     d03: 11 08                        	adcl	%ecx, (%eax)
     d05: 9f                           	lahf
     d06: 04 d0                        	addb	$-0x30, %al
     d08: 09 9e 0b 03 11 09            	orl	%ebx, 0x911030b(%esi)
     d0e: 9f                           	lahf
     d0f: 00 01                        	addb	%al, (%ecx)
     d11: 04 04                        	addb	$0x4, %al
     d13: 9c                           	pushfl
     d14: 08 b0 08 03 10 2c            	orb	%dh, 0x2c100308(%eax)
     d1a: 9f                           	lahf
     d1b: 04 b0                        	addb	$-0x50, %al
     d1d: 08 c4                        	orb	%al, %ah
     d1f: 08 03                        	orb	%al, (%ebx)
     d21: 10 20                        	adcb	%ah, (%eax)
     d23: 9f                           	lahf
     d24: 04 c4                        	addb	$-0x3c, %al
     d26: 08 d8                        	orb	%bl, %al
     d28: 08 03                        	orb	%al, (%ebx)
     d2a: 10 61 9f                     	adcb	%ah, -0x61(%ecx)
     d2d: 04 d8                        	addb	$-0x28, %al
     d2f: 08 ec                        	orb	%ch, %ah
     d31: 08 03                        	orb	%al, (%ebx)
     d33: 10 72 9f                     	adcb	%dh, -0x61(%edx)
     d36: 04 ec                        	addb	$-0x14, %al
     d38: 08 80 09 03 10 67            	orb	%al, 0x67100309(%eax)
     d3e: 9f                           	lahf
     d3f: 04 80                        	addb	$-0x80, %al
     d41: 09 94 09 03 10 73 9f         	orl	%edx, -0x608ceffd(%ecx,%ecx)
     d48: 04 94                        	addb	$-0x6c, %al
     d4a: 09 a8 09 03 10 20            	orl	%ebp, 0x20100309(%eax)
     d50: 9f                           	lahf
     d51: 04 a8                        	addb	$-0x58, %al
     d53: 09 bc 09 03 10 3d 9f         	orl	%edi, -0x60c2effd(%ecx,%ecx)
     d5a: 04 bc                        	addb	$-0x44, %al
     d5c: 09 9e 0b 03 10 20            	orl	%ebx, 0x2010030b(%esi)
     d62: 9f                           	lahf
     d63: 00 01                        	addb	%al, (%ecx)
     d65: 04 04                        	addb	$0x4, %al
     d67: d0 09                        	rorb	(%ecx)
     d69: de 09                        	fimuls	(%ecx)
     d6b: 01 59 04                     	addl	%ebx, 0x4(%ecx)
     d6e: ba 0a bc 0a 01               	movl	$0x10abc0a, %edx        # imm = 0x10ABC0A
     d73: 5c                           	popl	%esp
     d74: 04 d4                        	addb	$-0x2c, %al
     d76: 0a f0                        	orb	%al, %dh
     d78: 0a 02                        	orb	(%edx), %al
     d7a: 30 9f 04 f0 0a b6            	xorb	%bl, -0x49f50ffc(%edi)
     d80: 0b 04 30                     	orl	(%eax,%esi), %eax
     d83: 34 25                        	xorb	$0x25, %al
     d85: 9f                           	lahf
     d86: 00 01                        	addb	%al, (%ecx)
     d88: 04 04                        	addb	$0x4, %al
     d8a: de 09                        	fimuls	(%ecx)
     d8c: 92                           	xchgl	%edx, %eax
     d8d: 0a 08                        	orb	(%eax), %cl
     d8f: 93                           	xchgl	%ebx, %eax
     d90: 0f 72 1b                     	<unknown>
     d93: 23 0f                        	andl	(%edi), %ecx
     d95: 93                           	xchgl	%ebx, %eax
     d96: 01 04 92                     	addl	%eax, (%edx,%edx,4)
     d99: 0a 96 0a 0e 93 0e            	orb	0xe930e0a(%esi), %dl
     d9f: 72 1b                        	jb	0xdbc <$d+0xdbc>
     da1: 23 0e                        	andl	(%esi), %ecx
     da3: 93                           	xchgl	%ebx, %eax
     da4: 01 72 1b                     	addl	%esi, 0x1b(%edx)
     da7: 23 0f                        	andl	(%edi), %ecx
     da9: 93                           	xchgl	%ebx, %eax
     daa: 01 04 96                     	addl	%eax, (%esi,%edx,4)
     dad: 0a 9a 0a 14 93 0d            	orb	0xd93140a(%edx), %bl
     db3: 72 1b                        	jb	0xdd0 <$d+0xdd0>
     db5: 23 0d 93 01 72 1b            	andl	0x1b720193, %ecx
     dbb: 23 0e                        	andl	(%esi), %ecx
     dbd: 93                           	xchgl	%ebx, %eax
     dbe: 01 72 1b                     	addl	%esi, 0x1b(%edx)
     dc1: 23 0f                        	andl	(%edi), %ecx
     dc3: 93                           	xchgl	%ebx, %eax
     dc4: 01 04 9a                     	addl	%eax, (%edx,%ebx,4)
     dc7: 0a 9e 0a 1a 93 0c            	orb	0xc931a0a(%esi), %bl
     dcd: 72 1b                        	jb	0xdea <$d+0xdea>
     dcf: 23 0c 93                     	andl	(%ebx,%edx,4), %ecx
     dd2: 01 72 1b                     	addl	%esi, 0x1b(%edx)
     dd5: 23 0d 93 01 72 1b            	andl	0x1b720193, %ecx
     ddb: 23 0e                        	andl	(%esi), %ecx
     ddd: 93                           	xchgl	%ebx, %eax
     dde: 01 72 1b                     	addl	%esi, 0x1b(%edx)
     de1: 23 0f                        	andl	(%edi), %ecx
     de3: 93                           	xchgl	%ebx, %eax
     de4: 01 04 9e                     	addl	%eax, (%esi,%ebx,4)
     de7: 0a c4                        	orb	%ah, %al
     de9: 0a 20                        	orb	(%eax), %ah
     deb: 93                           	xchgl	%ebx, %eax
     dec: 0b 72 1b                     	orl	0x1b(%edx), %esi
     def: 23 0b                        	andl	(%ebx), %ecx
     df1: 93                           	xchgl	%ebx, %eax
     df2: 01 72 1b                     	addl	%esi, 0x1b(%edx)
     df5: 23 0c 93                     	andl	(%ebx,%edx,4), %ecx
     df8: 01 72 1b                     	addl	%esi, 0x1b(%edx)
     dfb: 23 0d 93 01 72 1b            	andl	0x1b720193, %ecx
     e01: 23 0e                        	andl	(%esi), %ecx
     e03: 93                           	xchgl	%ebx, %eax
     e04: 01 72 1b                     	addl	%esi, 0x1b(%edx)
     e07: 23 0f                        	andl	(%edi), %ecx
     e09: 93                           	xchgl	%ebx, %eax
     e0a: 01 04 c4                     	addl	%eax, (%esp,%eax,8)
     e0d: 0a c8                        	orb	%al, %cl
     e0f: 0a 26                        	orb	(%esi), %ah
     e11: 93                           	xchgl	%ebx, %eax
     e12: 0a 72 1b                     	orb	0x1b(%edx), %dh
     e15: 23 0a                        	andl	(%edx), %ecx
     e17: 93                           	xchgl	%ebx, %eax
     e18: 01 72 1b                     	addl	%esi, 0x1b(%edx)
     e1b: 23 0b                        	andl	(%ebx), %ecx
     e1d: 93                           	xchgl	%ebx, %eax
     e1e: 01 72 1b                     	addl	%esi, 0x1b(%edx)
     e21: 23 0c 93                     	andl	(%ebx,%edx,4), %ecx
     e24: 01 72 1b                     	addl	%esi, 0x1b(%edx)
     e27: 23 0d 93 01 72 1b            	andl	0x1b720193, %ecx
     e2d: 23 0e                        	andl	(%esi), %ecx
     e2f: 93                           	xchgl	%ebx, %eax
     e30: 01 72 1b                     	addl	%esi, 0x1b(%edx)
     e33: 23 0f                        	andl	(%edi), %ecx
     e35: 93                           	xchgl	%ebx, %eax
     e36: 01 04 c8                     	addl	%eax, (%eax,%ecx,8)
     e39: 0a cc                        	orb	%ah, %cl
     e3b: 0a 2c 93                     	orb	(%ebx,%edx,4), %ch
     e3e: 09 72 1b                     	orl	%esi, 0x1b(%edx)
     e41: 23 09                        	andl	(%ecx), %ecx
     e43: 93                           	xchgl	%ebx, %eax
     e44: 01 72 1b                     	addl	%esi, 0x1b(%edx)
     e47: 23 0a                        	andl	(%edx), %ecx
     e49: 93                           	xchgl	%ebx, %eax
     e4a: 01 72 1b                     	addl	%esi, 0x1b(%edx)
     e4d: 23 0b                        	andl	(%ebx), %ecx
     e4f: 93                           	xchgl	%ebx, %eax
     e50: 01 72 1b                     	addl	%esi, 0x1b(%edx)
     e53: 23 0c 93                     	andl	(%ebx,%edx,4), %ecx
     e56: 01 72 1b                     	addl	%esi, 0x1b(%edx)
     e59: 23 0d 93 01 72 1b            	andl	0x1b720193, %ecx
     e5f: 23 0e                        	andl	(%esi), %ecx
     e61: 93                           	xchgl	%ebx, %eax
     e62: 01 72 1b                     	addl	%esi, 0x1b(%edx)
     e65: 23 0f                        	andl	(%edi), %ecx
     e67: 93                           	xchgl	%ebx, %eax
     e68: 01 04 cc                     	addl	%eax, (%esp,%ecx,8)
     e6b: 0a d4                        	orb	%ah, %dl
     e6d: 0a 32                        	orb	(%edx), %dh
     e6f: 93                           	xchgl	%ebx, %eax
     e70: 09 72 1b                     	orl	%esi, 0x1b(%edx)
     e73: 23 09                        	andl	(%ecx), %ecx
     e75: 93                           	xchgl	%ebx, %eax
     e76: 01 72 1b                     	addl	%esi, 0x1b(%edx)
     e79: 23 0a                        	andl	(%edx), %ecx
     e7b: 93                           	xchgl	%ebx, %eax
     e7c: 01 72 1b                     	addl	%esi, 0x1b(%edx)
     e7f: 23 0b                        	andl	(%ebx), %ecx
     e81: 93                           	xchgl	%ebx, %eax
     e82: 01 72 1b                     	addl	%esi, 0x1b(%edx)
     e85: 23 0c 93                     	andl	(%ebx,%edx,4), %ecx
     e88: 01 72 1b                     	addl	%esi, 0x1b(%edx)
     e8b: 23 0d 93 01 72 1b            	andl	0x1b720193, %ecx
     e91: 23 0e                        	andl	(%esi), %ecx
     e93: 93                           	xchgl	%ebx, %eax
     e94: 01 72 1b                     	addl	%esi, 0x1b(%edx)
     e97: 23 0f                        	andl	(%edi), %ecx
     e99: 93                           	xchgl	%ebx, %eax
     e9a: 01 72 1b                     	addl	%esi, 0x1b(%edx)
     e9d: 23 10                        	andl	(%eax), %edx
     e9f: 93                           	xchgl	%ebx, %eax
     ea0: 01 04 d4                     	addl	%eax, (%esp,%edx,8)
     ea3: 0a d8                        	orb	%al, %bl
     ea5: 0a 38                        	orb	(%eax), %bh
     ea7: 93                           	xchgl	%ebx, %eax
     ea8: 08 72 1b                     	orb	%dh, 0x1b(%edx)
     eab: 23 08                        	andl	(%eax), %ecx
     ead: 93                           	xchgl	%ebx, %eax
     eae: 01 72 1b                     	addl	%esi, 0x1b(%edx)
     eb1: 23 09                        	andl	(%ecx), %ecx
     eb3: 93                           	xchgl	%ebx, %eax
     eb4: 01 72 1b                     	addl	%esi, 0x1b(%edx)
     eb7: 23 0a                        	andl	(%edx), %ecx
     eb9: 93                           	xchgl	%ebx, %eax
     eba: 01 72 1b                     	addl	%esi, 0x1b(%edx)
     ebd: 23 0b                        	andl	(%ebx), %ecx
     ebf: 93                           	xchgl	%ebx, %eax
     ec0: 01 72 1b                     	addl	%esi, 0x1b(%edx)
     ec3: 23 0c 93                     	andl	(%ebx,%edx,4), %ecx
     ec6: 01 72 1b                     	addl	%esi, 0x1b(%edx)
     ec9: 23 0d 93 01 72 1b            	andl	0x1b720193, %ecx
     ecf: 23 0e                        	andl	(%esi), %ecx
     ed1: 93                           	xchgl	%ebx, %eax
     ed2: 01 72 1b                     	addl	%esi, 0x1b(%edx)
     ed5: 23 0f                        	andl	(%edi), %ecx
     ed7: 93                           	xchgl	%ebx, %eax
     ed8: 01 72 1b                     	addl	%esi, 0x1b(%edx)
     edb: 23 10                        	andl	(%eax), %edx
     edd: 93                           	xchgl	%ebx, %eax
     ede: 01 04 d8                     	addl	%eax, (%eax,%ebx,8)
     ee1: 0a dc                        	orb	%ah, %bl
     ee3: 0a 3e                        	orb	(%esi), %bh
     ee5: 93                           	xchgl	%ebx, %eax
     ee6: 07                           	popl	%es
     ee7: 72 1b                        	jb	0xf04 <$d+0xf04>
     ee9: 23 07                        	andl	(%edi), %eax
     eeb: 93                           	xchgl	%ebx, %eax
     eec: 01 72 1b                     	addl	%esi, 0x1b(%edx)
     eef: 23 08                        	andl	(%eax), %ecx
     ef1: 93                           	xchgl	%ebx, %eax
     ef2: 01 72 1b                     	addl	%esi, 0x1b(%edx)
     ef5: 23 09                        	andl	(%ecx), %ecx
     ef7: 93                           	xchgl	%ebx, %eax
     ef8: 01 72 1b                     	addl	%esi, 0x1b(%edx)
     efb: 23 0a                        	andl	(%edx), %ecx
     efd: 93                           	xchgl	%ebx, %eax
     efe: 01 72 1b                     	addl	%esi, 0x1b(%edx)
     f01: 23 0b                        	andl	(%ebx), %ecx
     f03: 93                           	xchgl	%ebx, %eax
     f04: 01 72 1b                     	addl	%esi, 0x1b(%edx)
     f07: 23 0c 93                     	andl	(%ebx,%edx,4), %ecx
     f0a: 01 72 1b                     	addl	%esi, 0x1b(%edx)
     f0d: 23 0d 93 01 72 1b            	andl	0x1b720193, %ecx
     f13: 23 0e                        	andl	(%esi), %ecx
     f15: 93                           	xchgl	%ebx, %eax
     f16: 01 72 1b                     	addl	%esi, 0x1b(%edx)
     f19: 23 0f                        	andl	(%edi), %ecx
     f1b: 93                           	xchgl	%ebx, %eax
     f1c: 01 72 1b                     	addl	%esi, 0x1b(%edx)
     f1f: 23 10                        	andl	(%eax), %edx
     f21: 93                           	xchgl	%ebx, %eax
     f22: 01 04 dc                     	addl	%eax, (%esp,%ebx,8)
     f25: 0a e0                        	orb	%al, %ah
     f27: 0a 44 93 06                  	orb	0x6(%ebx,%edx,4), %al
     f2b: 72 1b                        	jb	0xf48 <$d+0xf48>
     f2d: 23 06                        	andl	(%esi), %eax
     f2f: 93                           	xchgl	%ebx, %eax
     f30: 01 72 1b                     	addl	%esi, 0x1b(%edx)
     f33: 23 07                        	andl	(%edi), %eax
     f35: 93                           	xchgl	%ebx, %eax
     f36: 01 72 1b                     	addl	%esi, 0x1b(%edx)
     f39: 23 08                        	andl	(%eax), %ecx
     f3b: 93                           	xchgl	%ebx, %eax
     f3c: 01 72 1b                     	addl	%esi, 0x1b(%edx)
     f3f: 23 09                        	andl	(%ecx), %ecx
     f41: 93                           	xchgl	%ebx, %eax
     f42: 01 72 1b                     	addl	%esi, 0x1b(%edx)
     f45: 23 0a                        	andl	(%edx), %ecx
     f47: 93                           	xchgl	%ebx, %eax
     f48: 01 72 1b                     	addl	%esi, 0x1b(%edx)
     f4b: 23 0b                        	andl	(%ebx), %ecx
     f4d: 93                           	xchgl	%ebx, %eax
     f4e: 01 72 1b                     	addl	%esi, 0x1b(%edx)
     f51: 23 0c 93                     	andl	(%ebx,%edx,4), %ecx
     f54: 01 72 1b                     	addl	%esi, 0x1b(%edx)
     f57: 23 0d 93 01 72 1b            	andl	0x1b720193, %ecx
     f5d: 23 0e                        	andl	(%esi), %ecx
     f5f: 93                           	xchgl	%ebx, %eax
     f60: 01 72 1b                     	addl	%esi, 0x1b(%edx)
     f63: 23 0f                        	andl	(%edi), %ecx
     f65: 93                           	xchgl	%ebx, %eax
     f66: 01 72 1b                     	addl	%esi, 0x1b(%edx)
     f69: 23 10                        	andl	(%eax), %edx
     f6b: 93                           	xchgl	%ebx, %eax
     f6c: 01 04 e0                     	addl	%eax, (%eax,%eiz,8)
     f6f: 0a e4                        	orb	%ah, %ah
     f71: 0a 4a 93                     	orb	-0x6d(%edx), %cl
     f74: 05 72 1b 23 05               	addl	$0x5231b72, %eax        # imm = 0x5231B72
     f79: 93                           	xchgl	%ebx, %eax
     f7a: 01 72 1b                     	addl	%esi, 0x1b(%edx)
     f7d: 23 06                        	andl	(%esi), %eax
     f7f: 93                           	xchgl	%ebx, %eax
     f80: 01 72 1b                     	addl	%esi, 0x1b(%edx)
     f83: 23 07                        	andl	(%edi), %eax
     f85: 93                           	xchgl	%ebx, %eax
     f86: 01 72 1b                     	addl	%esi, 0x1b(%edx)
     f89: 23 08                        	andl	(%eax), %ecx
     f8b: 93                           	xchgl	%ebx, %eax
     f8c: 01 72 1b                     	addl	%esi, 0x1b(%edx)
     f8f: 23 09                        	andl	(%ecx), %ecx
     f91: 93                           	xchgl	%ebx, %eax
     f92: 01 72 1b                     	addl	%esi, 0x1b(%edx)
     f95: 23 0a                        	andl	(%edx), %ecx
     f97: 93                           	xchgl	%ebx, %eax
     f98: 01 72 1b                     	addl	%esi, 0x1b(%edx)
     f9b: 23 0b                        	andl	(%ebx), %ecx
     f9d: 93                           	xchgl	%ebx, %eax
     f9e: 01 72 1b                     	addl	%esi, 0x1b(%edx)
     fa1: 23 0c 93                     	andl	(%ebx,%edx,4), %ecx
     fa4: 01 72 1b                     	addl	%esi, 0x1b(%edx)
     fa7: 23 0d 93 01 72 1b            	andl	0x1b720193, %ecx
     fad: 23 0e                        	andl	(%esi), %ecx
     faf: 93                           	xchgl	%ebx, %eax
     fb0: 01 72 1b                     	addl	%esi, 0x1b(%edx)
     fb3: 23 0f                        	andl	(%edi), %ecx
     fb5: 93                           	xchgl	%ebx, %eax
     fb6: 01 72 1b                     	addl	%esi, 0x1b(%edx)
     fb9: 23 10                        	andl	(%eax), %edx
     fbb: 93                           	xchgl	%ebx, %eax
     fbc: 01 04 e4                     	addl	%eax, (%esp,%eiz,8)
     fbf: 0a e8                        	orb	%al, %ch
     fc1: 0a 50 93                     	orb	-0x6d(%eax), %dl
     fc4: 04 72                        	addb	$0x72, %al
     fc6: 1b 23                        	sbbl	(%ebx), %esp
     fc8: 04 93                        	addb	$-0x6d, %al
     fca: 01 72 1b                     	addl	%esi, 0x1b(%edx)
     fcd: 23 05 93 01 72 1b            	andl	0x1b720193, %eax
     fd3: 23 06                        	andl	(%esi), %eax
     fd5: 93                           	xchgl	%ebx, %eax
     fd6: 01 72 1b                     	addl	%esi, 0x1b(%edx)
     fd9: 23 07                        	andl	(%edi), %eax
     fdb: 93                           	xchgl	%ebx, %eax
     fdc: 01 72 1b                     	addl	%esi, 0x1b(%edx)
     fdf: 23 08                        	andl	(%eax), %ecx
     fe1: 93                           	xchgl	%ebx, %eax
     fe2: 01 72 1b                     	addl	%esi, 0x1b(%edx)
     fe5: 23 09                        	andl	(%ecx), %ecx
     fe7: 93                           	xchgl	%ebx, %eax
     fe8: 01 72 1b                     	addl	%esi, 0x1b(%edx)
     feb: 23 0a                        	andl	(%edx), %ecx
     fed: 93                           	xchgl	%ebx, %eax
     fee: 01 72 1b                     	addl	%esi, 0x1b(%edx)
     ff1: 23 0b                        	andl	(%ebx), %ecx
     ff3: 93                           	xchgl	%ebx, %eax
     ff4: 01 72 1b                     	addl	%esi, 0x1b(%edx)
     ff7: 23 0c 93                     	andl	(%ebx,%edx,4), %ecx
     ffa: 01 72 1b                     	addl	%esi, 0x1b(%edx)
     ffd: 23 0d 93 01 72 1b            	andl	0x1b720193, %ecx
    1003: 23 0e                        	andl	(%esi), %ecx
    1005: 93                           	xchgl	%ebx, %eax
    1006: 01 72 1b                     	addl	%esi, 0x1b(%edx)
    1009: 23 0f                        	andl	(%edi), %ecx
    100b: 93                           	xchgl	%ebx, %eax
    100c: 01 72 1b                     	addl	%esi, 0x1b(%edx)
    100f: 23 10                        	andl	(%eax), %edx
    1011: 93                           	xchgl	%ebx, %eax
    1012: 01 04 e8                     	addl	%eax, (%eax,%ebp,8)
    1015: 0a ec                        	orb	%ah, %ch
    1017: 0a 56 93                     	orb	-0x6d(%esi), %dl
    101a: 03 72 1b                     	addl	0x1b(%edx), %esi
    101d: 23 03                        	andl	(%ebx), %eax
    101f: 93                           	xchgl	%ebx, %eax
    1020: 01 72 1b                     	addl	%esi, 0x1b(%edx)
    1023: 23 04 93                     	andl	(%ebx,%edx,4), %eax
    1026: 01 72 1b                     	addl	%esi, 0x1b(%edx)
    1029: 23 05 93 01 72 1b            	andl	0x1b720193, %eax
    102f: 23 06                        	andl	(%esi), %eax
    1031: 93                           	xchgl	%ebx, %eax
    1032: 01 72 1b                     	addl	%esi, 0x1b(%edx)
    1035: 23 07                        	andl	(%edi), %eax
    1037: 93                           	xchgl	%ebx, %eax
    1038: 01 72 1b                     	addl	%esi, 0x1b(%edx)
    103b: 23 08                        	andl	(%eax), %ecx
    103d: 93                           	xchgl	%ebx, %eax
    103e: 01 72 1b                     	addl	%esi, 0x1b(%edx)
    1041: 23 09                        	andl	(%ecx), %ecx
    1043: 93                           	xchgl	%ebx, %eax
    1044: 01 72 1b                     	addl	%esi, 0x1b(%edx)
    1047: 23 0a                        	andl	(%edx), %ecx
    1049: 93                           	xchgl	%ebx, %eax
    104a: 01 72 1b                     	addl	%esi, 0x1b(%edx)
    104d: 23 0b                        	andl	(%ebx), %ecx
    104f: 93                           	xchgl	%ebx, %eax
    1050: 01 72 1b                     	addl	%esi, 0x1b(%edx)
    1053: 23 0c 93                     	andl	(%ebx,%edx,4), %ecx
    1056: 01 72 1b                     	addl	%esi, 0x1b(%edx)
    1059: 23 0d 93 01 72 1b            	andl	0x1b720193, %ecx
    105f: 23 0e                        	andl	(%esi), %ecx
    1061: 93                           	xchgl	%ebx, %eax
    1062: 01 72 1b                     	addl	%esi, 0x1b(%edx)
    1065: 23 0f                        	andl	(%edi), %ecx
    1067: 93                           	xchgl	%ebx, %eax
    1068: 01 72 1b                     	addl	%esi, 0x1b(%edx)
    106b: 23 10                        	andl	(%eax), %edx
    106d: 93                           	xchgl	%ebx, %eax
    106e: 01 04 ec                     	addl	%eax, (%esp,%ebp,8)
    1071: 0a f0                        	orb	%al, %dh
    1073: 0a 5c 93 02                  	orb	0x2(%ebx,%edx,4), %bl
    1077: 72 1b                        	jb	0x1094 <$d+0x1094>
    1079: 23 02                        	andl	(%edx), %eax
    107b: 93                           	xchgl	%ebx, %eax
    107c: 01 72 1b                     	addl	%esi, 0x1b(%edx)
    107f: 23 03                        	andl	(%ebx), %eax
    1081: 93                           	xchgl	%ebx, %eax
    1082: 01 72 1b                     	addl	%esi, 0x1b(%edx)
    1085: 23 04 93                     	andl	(%ebx,%edx,4), %eax
    1088: 01 72 1b                     	addl	%esi, 0x1b(%edx)
    108b: 23 05 93 01 72 1b            	andl	0x1b720193, %eax
    1091: 23 06                        	andl	(%esi), %eax
    1093: 93                           	xchgl	%ebx, %eax
    1094: 01 72 1b                     	addl	%esi, 0x1b(%edx)
    1097: 23 07                        	andl	(%edi), %eax
    1099: 93                           	xchgl	%ebx, %eax
    109a: 01 72 1b                     	addl	%esi, 0x1b(%edx)
    109d: 23 08                        	andl	(%eax), %ecx
    109f: 93                           	xchgl	%ebx, %eax
    10a0: 01 72 1b                     	addl	%esi, 0x1b(%edx)
    10a3: 23 09                        	andl	(%ecx), %ecx
    10a5: 93                           	xchgl	%ebx, %eax
    10a6: 01 72 1b                     	addl	%esi, 0x1b(%edx)
    10a9: 23 0a                        	andl	(%edx), %ecx
    10ab: 93                           	xchgl	%ebx, %eax
    10ac: 01 72 1b                     	addl	%esi, 0x1b(%edx)
    10af: 23 0b                        	andl	(%ebx), %ecx
    10b1: 93                           	xchgl	%ebx, %eax
    10b2: 01 72 1b                     	addl	%esi, 0x1b(%edx)
    10b5: 23 0c 93                     	andl	(%ebx,%edx,4), %ecx
    10b8: 01 72 1b                     	addl	%esi, 0x1b(%edx)
    10bb: 23 0d 93 01 72 1b            	andl	0x1b720193, %ecx
    10c1: 23 0e                        	andl	(%esi), %ecx
    10c3: 93                           	xchgl	%ebx, %eax
    10c4: 01 72 1b                     	addl	%esi, 0x1b(%edx)
    10c7: 23 0f                        	andl	(%edi), %ecx
    10c9: 93                           	xchgl	%ebx, %eax
    10ca: 01 72 1b                     	addl	%esi, 0x1b(%edx)
    10cd: 23 10                        	andl	(%eax), %edx
    10cf: 93                           	xchgl	%ebx, %eax
    10d0: 01 04 f0                     	addl	%eax, (%eax,%esi,8)
    10d3: 0a b6 0b 62 93 01            	orb	0x193620b(%esi), %dh
    10d9: 72 1b                        	jb	0x10f6 <$d+0x10f6>
    10db: 23 01                        	andl	(%ecx), %eax
    10dd: 93                           	xchgl	%ebx, %eax
    10de: 01 72 1b                     	addl	%esi, 0x1b(%edx)
    10e1: 23 02                        	andl	(%edx), %eax
    10e3: 93                           	xchgl	%ebx, %eax
    10e4: 01 72 1b                     	addl	%esi, 0x1b(%edx)
    10e7: 23 03                        	andl	(%ebx), %eax
    10e9: 93                           	xchgl	%ebx, %eax
    10ea: 01 72 1b                     	addl	%esi, 0x1b(%edx)
    10ed: 23 04 93                     	andl	(%ebx,%edx,4), %eax
    10f0: 01 72 1b                     	addl	%esi, 0x1b(%edx)
    10f3: 23 05 93 01 72 1b            	andl	0x1b720193, %eax
    10f9: 23 06                        	andl	(%esi), %eax
    10fb: 93                           	xchgl	%ebx, %eax
    10fc: 01 72 1b                     	addl	%esi, 0x1b(%edx)
    10ff: 23 07                        	andl	(%edi), %eax
    1101: 93                           	xchgl	%ebx, %eax
    1102: 01 72 1b                     	addl	%esi, 0x1b(%edx)
    1105: 23 08                        	andl	(%eax), %ecx
    1107: 93                           	xchgl	%ebx, %eax
    1108: 01 72 1b                     	addl	%esi, 0x1b(%edx)
    110b: 23 09                        	andl	(%ecx), %ecx
    110d: 93                           	xchgl	%ebx, %eax
    110e: 01 72 1b                     	addl	%esi, 0x1b(%edx)
    1111: 23 0a                        	andl	(%edx), %ecx
    1113: 93                           	xchgl	%ebx, %eax
    1114: 01 72 1b                     	addl	%esi, 0x1b(%edx)
    1117: 23 0b                        	andl	(%ebx), %ecx
    1119: 93                           	xchgl	%ebx, %eax
    111a: 01 72 1b                     	addl	%esi, 0x1b(%edx)
    111d: 23 0c 93                     	andl	(%ebx,%edx,4), %ecx
    1120: 01 72 1b                     	addl	%esi, 0x1b(%edx)
    1123: 23 0d 93 01 72 1b            	andl	0x1b720193, %ecx
    1129: 23 0e                        	andl	(%esi), %ecx
    112b: 93                           	xchgl	%ebx, %eax
    112c: 01 72 1b                     	addl	%esi, 0x1b(%edx)
    112f: 23 0f                        	andl	(%edi), %ecx
    1131: 93                           	xchgl	%ebx, %eax
    1132: 01 72 1b                     	addl	%esi, 0x1b(%edx)
    1135: 23 10                        	andl	(%eax), %edx
    1137: 93                           	xchgl	%ebx, %eax
    1138: 01 00                        	addl	%eax, (%eax)
    113a: 01 04 04                     	addl	%eax, (%esp,%eax)
    113d: de 09                        	fimuls	(%ecx)
    113f: 92                           	xchgl	%edx, %eax
    1140: 0a 03                        	orb	(%ebx), %al
    1142: 11 0e                        	adcl	%ecx, (%esi)
    1144: 9f                           	lahf
    1145: 04 92                        	addb	$-0x6e, %al
    1147: 0a 96 0a 03 11 0d            	orb	0xd11030a(%esi), %dl
    114d: 9f                           	lahf
    114e: 04 96                        	addb	$-0x6a, %al
    1150: 0a 9a 0a 03 11 0c            	orb	0xc11030a(%edx), %bl
    1156: 9f                           	lahf
    1157: 04 9a                        	addb	$-0x66, %al
    1159: 0a 9e 0a 03 11 0b            	orb	0xb11030a(%esi), %bl
    115f: 9f                           	lahf
    1160: 04 9e                        	addb	$-0x62, %al
    1162: 0a ba 0a 03 11 0a            	orb	0xa11030a(%edx), %bh
    1168: 9f                           	lahf
    1169: 04 ba                        	addb	$-0x46, %al
    116b: 0a c4                        	orb	%ah, %al
    116d: 0a 03                        	orb	(%ebx), %al
    116f: 11 08                        	adcl	%ecx, (%eax)
    1171: 9f                           	lahf
    1172: 04 c4                        	addb	$-0x3c, %al
    1174: 0a cc                        	orb	%ah, %cl
    1176: 0a 03                        	orb	(%ebx), %al
    1178: 11 09                        	adcl	%ecx, (%ecx)
    117a: 9f                           	lahf
    117b: 04 cc                        	addb	$-0x34, %al
    117d: 0a d4                        	orb	%ah, %dl
    117f: 0a 03                        	orb	(%ebx), %al
    1181: 11 0f                        	adcl	%ecx, (%edi)
    1183: 9f                           	lahf
    1184: 04 d4                        	addb	$-0x2c, %al
    1186: 0a d8                        	orb	%al, %bl
    1188: 0a 03                        	orb	(%ebx), %al
    118a: 11 07                        	adcl	%eax, (%edi)
    118c: 9f                           	lahf
    118d: 04 d8                        	addb	$-0x28, %al
    118f: 0a dc                        	orb	%ah, %bl
    1191: 0a 03                        	orb	(%ebx), %al
    1193: 11 06                        	adcl	%eax, (%esi)
    1195: 9f                           	lahf
    1196: 04 dc                        	addb	$-0x24, %al
    1198: 0a e0                        	orb	%al, %ah
    119a: 0a 03                        	orb	(%ebx), %al
    119c: 11 05 9f 04 e0 0a            	adcl	%eax, 0xae0049f
    11a2: e4 0a                        	inb	$0xa, %al
    11a4: 03 11                        	addl	(%ecx), %edx
    11a6: 04 9f                        	addb	$-0x61, %al
    11a8: 04 e4                        	addb	$-0x1c, %al
    11aa: 0a e8                        	orb	%al, %ch
    11ac: 0a 03                        	orb	(%ebx), %al
    11ae: 11 03                        	adcl	%eax, (%ebx)
    11b0: 9f                           	lahf
    11b1: 04 e8                        	addb	$-0x18, %al
    11b3: 0a ec                        	orb	%ah, %ch
    11b5: 0a 03                        	orb	(%ebx), %al
    11b7: 11 02                        	adcl	%eax, (%edx)
    11b9: 9f                           	lahf
    11ba: 04 ec                        	addb	$-0x14, %al
    11bc: 0a f0                        	orb	%al, %dh
    11be: 0a 03                        	orb	(%ebx), %al
    11c0: 11 01                        	adcl	%eax, (%ecx)
    11c2: 9f                           	lahf
    11c3: 04 f0                        	addb	$-0x10, %al
    11c5: 0a 9e 0b 03 11 7f            	orb	0x7f11030b(%esi), %bl
    11cb: 9f                           	lahf
    11cc: 00 01                        	addb	%al, (%ecx)
    11ce: 04 04                        	addb	$0x4, %al
    11d0: f0                           	lock
    11d1: 0a 84 0b 03 10 30 9f         	orb	-0x60cfeffd(%ebx,%ecx), %al
    11d8: 04 84                        	addb	$-0x7c, %al
    11da: 0b 9e 0b 03 10 78            	orl	0x7810030b(%esi), %ebx
    11e0: 9f                           	lahf
    11e1: 00 01                        	addb	%al, (%ecx)
    11e3: 04 04                        	addb	$0x4, %al
    11e5: f0                           	lock
    11e6: 0a 84 0b 03 11 00 9f         	orb	-0x60ffeefd(%ebx,%ecx), %al
    11ed: 04 84                        	addb	$-0x7c, %al
    11ef: 0b 9c 0b 03 11 01 9f         	orl	-0x60feeefd(%ebx,%ecx), %ebx
    11f6: 04 9c                        	addb	$-0x64, %al
    11f8: 0b 9e 0b 03 11 02            	orl	0x211030b(%esi), %ebx
    11fe: 9f                           	lahf
    11ff: 00 01                        	addb	%al, (%ecx)
    1201: 04 04                        	addb	$0x4, %al
    1203: 9e                           	sahf
    1204: 0b ae 0b 09 78 00            	orl	0x78090b(%esi), %ebp
    120a: 11 01                        	adcl	%eax, (%ecx)
    120c: 72 1b                        	jb	0x1229 <$d+0x1229>
    120e: 22 1c 9f                     	andb	(%edi,%ebx,4), %bl
    1211: 04 ae                        	addb	$-0x52, %al
    1213: 0b b4 0b 0c 78 00 11         	orl	0x1100780c(%ebx,%ecx), %esi
    121a: 01 72 1b                     	addl	%esi, 0x1b(%edx)
    121d: 22 1c 11                     	andb	(%ecx,%edx), %bl
    1220: 01 22                        	addl	%esp, (%edx)
    1222: 9f                           	lahf
    1223: 00 01                        	addb	%al, (%ecx)
    1225: 04 04                        	addb	$0x4, %al
    1227: b6 0b                        	movb	$0xb, %dh
    1229: ca 0b 03                     	lretl	$0x30b                  # imm = 0x30B
    122c: 11 00                        	adcl	%eax, (%eax)
    122e: 9f                           	lahf
    122f: 04 ca                        	addb	$-0x36, %al
    1231: 0b de                        	orl	%esi, %ebx
    1233: 0b 03                        	orl	(%ebx), %eax
    1235: 11 01                        	adcl	%eax, (%ecx)
    1237: 9f                           	lahf
    1238: 04 de                        	addb	$-0x22, %al
    123a: 0b ac 0d 03 11 02 9f         	orl	-0x60fdeefd(%ebp,%ecx), %ebp
    1241: 00 01                        	addb	%al, (%ecx)
    1243: 04 04                        	addb	$0x4, %al
    1245: b6 0b                        	movb	$0xb, %dh
    1247: ca 0b 03                     	lretl	$0x30b                  # imm = 0x30B
    124a: 10 2c 9f                     	adcb	%ch, (%edi,%ebx,4)
    124d: 04 ca                        	addb	$-0x36, %al
    124f: 0b ac 0d 03 10 20 9f         	orl	-0x60dfeffd(%ebp,%ecx), %ebp
    1256: 00 01                        	addb	%al, (%ecx)
    1258: 04 04                        	addb	$0x4, %al
    125a: de 0b                        	fimuls	(%ebx)
    125c: ec                           	inb	%dx, %al
    125d: 0b 01                        	orl	(%ecx), %eax
    125f: 62 04 c8                     	bound	%eax, (%eax,%ecx,8)
    1262: 0c ca                        	orb	$-0x36, %al
    1264: 0c 01                        	orb	$0x1, %al
    1266: 5c                           	popl	%esp
    1267: 04 e2                        	addb	$-0x1e, %al
    1269: 0c fe                        	orb	$-0x2, %al
    126b: 0c 02                        	orb	$0x2, %al
    126d: 30 9f 04 fe 0c c4            	xorb	%bl, -0x3bf301fc(%edi)
    1273: 0d 04 30 34 25               	orl	$0x25343004, %eax       # imm = 0x25343004
    1278: 9f                           	lahf
    1279: 00 01                        	addb	%al, (%ecx)
    127b: 04 04                        	addb	$0x4, %al
    127d: ec                           	inb	%dx, %al
    127e: 0b a0 0c 08 93 0f            	orl	0xf93080c(%eax), %esp
    1284: 72 1b                        	jb	0x12a1 <$d+0x12a1>
    1286: 23 0f                        	andl	(%edi), %ecx
    1288: 93                           	xchgl	%ebx, %eax
    1289: 01 04 a0                     	addl	%eax, (%eax,%eiz,4)
    128c: 0c a4                        	orb	$-0x5c, %al
    128e: 0c 0e                        	orb	$0xe, %al
    1290: 93                           	xchgl	%ebx, %eax
    1291: 0e                           	pushl	%cs
    1292: 72 1b                        	jb	0x12af <$d+0x12af>
    1294: 23 0e                        	andl	(%esi), %ecx
    1296: 93                           	xchgl	%ebx, %eax
    1297: 01 72 1b                     	addl	%esi, 0x1b(%edx)
    129a: 23 0f                        	andl	(%edi), %ecx
    129c: 93                           	xchgl	%ebx, %eax
    129d: 01 04 a4                     	addl	%eax, (%esp,%eiz,4)
    12a0: 0c a8                        	orb	$-0x58, %al
    12a2: 0c 14                        	orb	$0x14, %al
    12a4: 93                           	xchgl	%ebx, %eax
    12a5: 0d 72 1b 23 0d               	orl	$0xd231b72, %eax        # imm = 0xD231B72
    12aa: 93                           	xchgl	%ebx, %eax
    12ab: 01 72 1b                     	addl	%esi, 0x1b(%edx)
    12ae: 23 0e                        	andl	(%esi), %ecx
    12b0: 93                           	xchgl	%ebx, %eax
    12b1: 01 72 1b                     	addl	%esi, 0x1b(%edx)
    12b4: 23 0f                        	andl	(%edi), %ecx
    12b6: 93                           	xchgl	%ebx, %eax
    12b7: 01 04 a8                     	addl	%eax, (%eax,%ebp,4)
    12ba: 0c ac                        	orb	$-0x54, %al
    12bc: 0c 1a                        	orb	$0x1a, %al
    12be: 93                           	xchgl	%ebx, %eax
    12bf: 0c 72                        	orb	$0x72, %al
    12c1: 1b 23                        	sbbl	(%ebx), %esp
    12c3: 0c 93                        	orb	$-0x6d, %al
    12c5: 01 72 1b                     	addl	%esi, 0x1b(%edx)
    12c8: 23 0d 93 01 72 1b            	andl	0x1b720193, %ecx
    12ce: 23 0e                        	andl	(%esi), %ecx
    12d0: 93                           	xchgl	%ebx, %eax
    12d1: 01 72 1b                     	addl	%esi, 0x1b(%edx)
    12d4: 23 0f                        	andl	(%edi), %ecx
    12d6: 93                           	xchgl	%ebx, %eax
    12d7: 01 04 ac                     	addl	%eax, (%esp,%ebp,4)
    12da: 0c d2                        	orb	$-0x2e, %al
    12dc: 0c 20                        	orb	$0x20, %al
    12de: 93                           	xchgl	%ebx, %eax
    12df: 0b 72 1b                     	orl	0x1b(%edx), %esi
    12e2: 23 0b                        	andl	(%ebx), %ecx
    12e4: 93                           	xchgl	%ebx, %eax
    12e5: 01 72 1b                     	addl	%esi, 0x1b(%edx)
    12e8: 23 0c 93                     	andl	(%ebx,%edx,4), %ecx
    12eb: 01 72 1b                     	addl	%esi, 0x1b(%edx)
    12ee: 23 0d 93 01 72 1b            	andl	0x1b720193, %ecx
    12f4: 23 0e                        	andl	(%esi), %ecx
    12f6: 93                           	xchgl	%ebx, %eax
    12f7: 01 72 1b                     	addl	%esi, 0x1b(%edx)
    12fa: 23 0f                        	andl	(%edi), %ecx
    12fc: 93                           	xchgl	%ebx, %eax
    12fd: 01 04 d2                     	addl	%eax, (%edx,%edx,8)
    1300: 0c d6                        	orb	$-0x2a, %al
    1302: 0c 26                        	orb	$0x26, %al
    1304: 93                           	xchgl	%ebx, %eax
    1305: 0a 72 1b                     	orb	0x1b(%edx), %dh
    1308: 23 0a                        	andl	(%edx), %ecx
    130a: 93                           	xchgl	%ebx, %eax
    130b: 01 72 1b                     	addl	%esi, 0x1b(%edx)
    130e: 23 0b                        	andl	(%ebx), %ecx
    1310: 93                           	xchgl	%ebx, %eax
    1311: 01 72 1b                     	addl	%esi, 0x1b(%edx)
    1314: 23 0c 93                     	andl	(%ebx,%edx,4), %ecx
    1317: 01 72 1b                     	addl	%esi, 0x1b(%edx)
    131a: 23 0d 93 01 72 1b            	andl	0x1b720193, %ecx
    1320: 23 0e                        	andl	(%esi), %ecx
    1322: 93                           	xchgl	%ebx, %eax
    1323: 01 72 1b                     	addl	%esi, 0x1b(%edx)
    1326: 23 0f                        	andl	(%edi), %ecx
    1328: 93                           	xchgl	%ebx, %eax
    1329: 01 04 d6                     	addl	%eax, (%esi,%edx,8)
    132c: 0c da                        	orb	$-0x26, %al
    132e: 0c 2c                        	orb	$0x2c, %al
    1330: 93                           	xchgl	%ebx, %eax
    1331: 09 72 1b                     	orl	%esi, 0x1b(%edx)
    1334: 23 09                        	andl	(%ecx), %ecx
    1336: 93                           	xchgl	%ebx, %eax
    1337: 01 72 1b                     	addl	%esi, 0x1b(%edx)
    133a: 23 0a                        	andl	(%edx), %ecx
    133c: 93                           	xchgl	%ebx, %eax
    133d: 01 72 1b                     	addl	%esi, 0x1b(%edx)
    1340: 23 0b                        	andl	(%ebx), %ecx
    1342: 93                           	xchgl	%ebx, %eax
    1343: 01 72 1b                     	addl	%esi, 0x1b(%edx)
    1346: 23 0c 93                     	andl	(%ebx,%edx,4), %ecx
    1349: 01 72 1b                     	addl	%esi, 0x1b(%edx)
    134c: 23 0d 93 01 72 1b            	andl	0x1b720193, %ecx
    1352: 23 0e                        	andl	(%esi), %ecx
    1354: 93                           	xchgl	%ebx, %eax
    1355: 01 72 1b                     	addl	%esi, 0x1b(%edx)
    1358: 23 0f                        	andl	(%edi), %ecx
    135a: 93                           	xchgl	%ebx, %eax
    135b: 01 04 da                     	addl	%eax, (%edx,%ebx,8)
    135e: 0c e2                        	orb	$-0x1e, %al
    1360: 0c 32                        	orb	$0x32, %al
    1362: 93                           	xchgl	%ebx, %eax
    1363: 09 72 1b                     	orl	%esi, 0x1b(%edx)
    1366: 23 09                        	andl	(%ecx), %ecx
    1368: 93                           	xchgl	%ebx, %eax
    1369: 01 72 1b                     	addl	%esi, 0x1b(%edx)
    136c: 23 0a                        	andl	(%edx), %ecx
    136e: 93                           	xchgl	%ebx, %eax
    136f: 01 72 1b                     	addl	%esi, 0x1b(%edx)
    1372: 23 0b                        	andl	(%ebx), %ecx
    1374: 93                           	xchgl	%ebx, %eax
    1375: 01 72 1b                     	addl	%esi, 0x1b(%edx)
    1378: 23 0c 93                     	andl	(%ebx,%edx,4), %ecx
    137b: 01 72 1b                     	addl	%esi, 0x1b(%edx)
    137e: 23 0d 93 01 72 1b            	andl	0x1b720193, %ecx
    1384: 23 0e                        	andl	(%esi), %ecx
    1386: 93                           	xchgl	%ebx, %eax
    1387: 01 72 1b                     	addl	%esi, 0x1b(%edx)
    138a: 23 0f                        	andl	(%edi), %ecx
    138c: 93                           	xchgl	%ebx, %eax
    138d: 01 72 1b                     	addl	%esi, 0x1b(%edx)
    1390: 23 10                        	andl	(%eax), %edx
    1392: 93                           	xchgl	%ebx, %eax
    1393: 01 04 e2                     	addl	%eax, (%edx,%eiz,8)
    1396: 0c e6                        	orb	$-0x1a, %al
    1398: 0c 38                        	orb	$0x38, %al
    139a: 93                           	xchgl	%ebx, %eax
    139b: 08 72 1b                     	orb	%dh, 0x1b(%edx)
    139e: 23 08                        	andl	(%eax), %ecx
    13a0: 93                           	xchgl	%ebx, %eax
    13a1: 01 72 1b                     	addl	%esi, 0x1b(%edx)
    13a4: 23 09                        	andl	(%ecx), %ecx
    13a6: 93                           	xchgl	%ebx, %eax
    13a7: 01 72 1b                     	addl	%esi, 0x1b(%edx)
    13aa: 23 0a                        	andl	(%edx), %ecx
    13ac: 93                           	xchgl	%ebx, %eax
    13ad: 01 72 1b                     	addl	%esi, 0x1b(%edx)
    13b0: 23 0b                        	andl	(%ebx), %ecx
    13b2: 93                           	xchgl	%ebx, %eax
    13b3: 01 72 1b                     	addl	%esi, 0x1b(%edx)
    13b6: 23 0c 93                     	andl	(%ebx,%edx,4), %ecx
    13b9: 01 72 1b                     	addl	%esi, 0x1b(%edx)
    13bc: 23 0d 93 01 72 1b            	andl	0x1b720193, %ecx
    13c2: 23 0e                        	andl	(%esi), %ecx
    13c4: 93                           	xchgl	%ebx, %eax
    13c5: 01 72 1b                     	addl	%esi, 0x1b(%edx)
    13c8: 23 0f                        	andl	(%edi), %ecx
    13ca: 93                           	xchgl	%ebx, %eax
    13cb: 01 72 1b                     	addl	%esi, 0x1b(%edx)
    13ce: 23 10                        	andl	(%eax), %edx
    13d0: 93                           	xchgl	%ebx, %eax
    13d1: 01 04 e6                     	addl	%eax, (%esi,%eiz,8)
    13d4: 0c ea                        	orb	$-0x16, %al
    13d6: 0c 3e                        	orb	$0x3e, %al
    13d8: 93                           	xchgl	%ebx, %eax
    13d9: 07                           	popl	%es
    13da: 72 1b                        	jb	0x13f7 <$d+0x13f7>
    13dc: 23 07                        	andl	(%edi), %eax
    13de: 93                           	xchgl	%ebx, %eax
    13df: 01 72 1b                     	addl	%esi, 0x1b(%edx)
    13e2: 23 08                        	andl	(%eax), %ecx
    13e4: 93                           	xchgl	%ebx, %eax
    13e5: 01 72 1b                     	addl	%esi, 0x1b(%edx)
    13e8: 23 09                        	andl	(%ecx), %ecx
    13ea: 93                           	xchgl	%ebx, %eax
    13eb: 01 72 1b                     	addl	%esi, 0x1b(%edx)
    13ee: 23 0a                        	andl	(%edx), %ecx
    13f0: 93                           	xchgl	%ebx, %eax
    13f1: 01 72 1b                     	addl	%esi, 0x1b(%edx)
    13f4: 23 0b                        	andl	(%ebx), %ecx
    13f6: 93                           	xchgl	%ebx, %eax
    13f7: 01 72 1b                     	addl	%esi, 0x1b(%edx)
    13fa: 23 0c 93                     	andl	(%ebx,%edx,4), %ecx
    13fd: 01 72 1b                     	addl	%esi, 0x1b(%edx)
    1400: 23 0d 93 01 72 1b            	andl	0x1b720193, %ecx
    1406: 23 0e                        	andl	(%esi), %ecx
    1408: 93                           	xchgl	%ebx, %eax
    1409: 01 72 1b                     	addl	%esi, 0x1b(%edx)
    140c: 23 0f                        	andl	(%edi), %ecx
    140e: 93                           	xchgl	%ebx, %eax
    140f: 01 72 1b                     	addl	%esi, 0x1b(%edx)
    1412: 23 10                        	andl	(%eax), %edx
    1414: 93                           	xchgl	%ebx, %eax
    1415: 01 04 ea                     	addl	%eax, (%edx,%ebp,8)
    1418: 0c ee                        	orb	$-0x12, %al
    141a: 0c 44                        	orb	$0x44, %al
    141c: 93                           	xchgl	%ebx, %eax
    141d: 06                           	pushl	%es
    141e: 72 1b                        	jb	0x143b <$d+0x143b>
    1420: 23 06                        	andl	(%esi), %eax
    1422: 93                           	xchgl	%ebx, %eax
    1423: 01 72 1b                     	addl	%esi, 0x1b(%edx)
    1426: 23 07                        	andl	(%edi), %eax
    1428: 93                           	xchgl	%ebx, %eax
    1429: 01 72 1b                     	addl	%esi, 0x1b(%edx)
    142c: 23 08                        	andl	(%eax), %ecx
    142e: 93                           	xchgl	%ebx, %eax
    142f: 01 72 1b                     	addl	%esi, 0x1b(%edx)
    1432: 23 09                        	andl	(%ecx), %ecx
    1434: 93                           	xchgl	%ebx, %eax
    1435: 01 72 1b                     	addl	%esi, 0x1b(%edx)
    1438: 23 0a                        	andl	(%edx), %ecx
    143a: 93                           	xchgl	%ebx, %eax
    143b: 01 72 1b                     	addl	%esi, 0x1b(%edx)
    143e: 23 0b                        	andl	(%ebx), %ecx
    1440: 93                           	xchgl	%ebx, %eax
    1441: 01 72 1b                     	addl	%esi, 0x1b(%edx)
    1444: 23 0c 93                     	andl	(%ebx,%edx,4), %ecx
    1447: 01 72 1b                     	addl	%esi, 0x1b(%edx)
    144a: 23 0d 93 01 72 1b            	andl	0x1b720193, %ecx
    1450: 23 0e                        	andl	(%esi), %ecx
    1452: 93                           	xchgl	%ebx, %eax
    1453: 01 72 1b                     	addl	%esi, 0x1b(%edx)
    1456: 23 0f                        	andl	(%edi), %ecx
    1458: 93                           	xchgl	%ebx, %eax
    1459: 01 72 1b                     	addl	%esi, 0x1b(%edx)
    145c: 23 10                        	andl	(%eax), %edx
    145e: 93                           	xchgl	%ebx, %eax
    145f: 01 04 ee                     	addl	%eax, (%esi,%ebp,8)
    1462: 0c f2                        	orb	$-0xe, %al
    1464: 0c 4a                        	orb	$0x4a, %al
    1466: 93                           	xchgl	%ebx, %eax
    1467: 05 72 1b 23 05               	addl	$0x5231b72, %eax        # imm = 0x5231B72
    146c: 93                           	xchgl	%ebx, %eax
    146d: 01 72 1b                     	addl	%esi, 0x1b(%edx)
    1470: 23 06                        	andl	(%esi), %eax
    1472: 93                           	xchgl	%ebx, %eax
    1473: 01 72 1b                     	addl	%esi, 0x1b(%edx)
    1476: 23 07                        	andl	(%edi), %eax
    1478: 93                           	xchgl	%ebx, %eax
    1479: 01 72 1b                     	addl	%esi, 0x1b(%edx)
    147c: 23 08                        	andl	(%eax), %ecx
    147e: 93                           	xchgl	%ebx, %eax
    147f: 01 72 1b                     	addl	%esi, 0x1b(%edx)
    1482: 23 09                        	andl	(%ecx), %ecx
    1484: 93                           	xchgl	%ebx, %eax
    1485: 01 72 1b                     	addl	%esi, 0x1b(%edx)
    1488: 23 0a                        	andl	(%edx), %ecx
    148a: 93                           	xchgl	%ebx, %eax
    148b: 01 72 1b                     	addl	%esi, 0x1b(%edx)
    148e: 23 0b                        	andl	(%ebx), %ecx
    1490: 93                           	xchgl	%ebx, %eax
    1491: 01 72 1b                     	addl	%esi, 0x1b(%edx)
    1494: 23 0c 93                     	andl	(%ebx,%edx,4), %ecx
    1497: 01 72 1b                     	addl	%esi, 0x1b(%edx)
    149a: 23 0d 93 01 72 1b            	andl	0x1b720193, %ecx
    14a0: 23 0e                        	andl	(%esi), %ecx
    14a2: 93                           	xchgl	%ebx, %eax
    14a3: 01 72 1b                     	addl	%esi, 0x1b(%edx)
    14a6: 23 0f                        	andl	(%edi), %ecx
    14a8: 93                           	xchgl	%ebx, %eax
    14a9: 01 72 1b                     	addl	%esi, 0x1b(%edx)
    14ac: 23 10                        	andl	(%eax), %edx
    14ae: 93                           	xchgl	%ebx, %eax
    14af: 01 04 f2                     	addl	%eax, (%edx,%esi,8)
    14b2: 0c f6                        	orb	$-0xa, %al
    14b4: 0c 50                        	orb	$0x50, %al
    14b6: 93                           	xchgl	%ebx, %eax
    14b7: 04 72                        	addb	$0x72, %al
    14b9: 1b 23                        	sbbl	(%ebx), %esp
    14bb: 04 93                        	addb	$-0x6d, %al
    14bd: 01 72 1b                     	addl	%esi, 0x1b(%edx)
    14c0: 23 05 93 01 72 1b            	andl	0x1b720193, %eax
    14c6: 23 06                        	andl	(%esi), %eax
    14c8: 93                           	xchgl	%ebx, %eax
    14c9: 01 72 1b                     	addl	%esi, 0x1b(%edx)
    14cc: 23 07                        	andl	(%edi), %eax
    14ce: 93                           	xchgl	%ebx, %eax
    14cf: 01 72 1b                     	addl	%esi, 0x1b(%edx)
    14d2: 23 08                        	andl	(%eax), %ecx
    14d4: 93                           	xchgl	%ebx, %eax
    14d5: 01 72 1b                     	addl	%esi, 0x1b(%edx)
    14d8: 23 09                        	andl	(%ecx), %ecx
    14da: 93                           	xchgl	%ebx, %eax
    14db: 01 72 1b                     	addl	%esi, 0x1b(%edx)
    14de: 23 0a                        	andl	(%edx), %ecx
    14e0: 93                           	xchgl	%ebx, %eax
    14e1: 01 72 1b                     	addl	%esi, 0x1b(%edx)
    14e4: 23 0b                        	andl	(%ebx), %ecx
    14e6: 93                           	xchgl	%ebx, %eax
    14e7: 01 72 1b                     	addl	%esi, 0x1b(%edx)
    14ea: 23 0c 93                     	andl	(%ebx,%edx,4), %ecx
    14ed: 01 72 1b                     	addl	%esi, 0x1b(%edx)
    14f0: 23 0d 93 01 72 1b            	andl	0x1b720193, %ecx
    14f6: 23 0e                        	andl	(%esi), %ecx
    14f8: 93                           	xchgl	%ebx, %eax
    14f9: 01 72 1b                     	addl	%esi, 0x1b(%edx)
    14fc: 23 0f                        	andl	(%edi), %ecx
    14fe: 93                           	xchgl	%ebx, %eax
    14ff: 01 72 1b                     	addl	%esi, 0x1b(%edx)
    1502: 23 10                        	andl	(%eax), %edx
    1504: 93                           	xchgl	%ebx, %eax
    1505: 01 04 f6                     	addl	%eax, (%esi,%esi,8)
    1508: 0c fa                        	orb	$-0x6, %al
    150a: 0c 56                        	orb	$0x56, %al
    150c: 93                           	xchgl	%ebx, %eax
    150d: 03 72 1b                     	addl	0x1b(%edx), %esi
    1510: 23 03                        	andl	(%ebx), %eax
    1512: 93                           	xchgl	%ebx, %eax
    1513: 01 72 1b                     	addl	%esi, 0x1b(%edx)
    1516: 23 04 93                     	andl	(%ebx,%edx,4), %eax
    1519: 01 72 1b                     	addl	%esi, 0x1b(%edx)
    151c: 23 05 93 01 72 1b            	andl	0x1b720193, %eax
    1522: 23 06                        	andl	(%esi), %eax
    1524: 93                           	xchgl	%ebx, %eax
    1525: 01 72 1b                     	addl	%esi, 0x1b(%edx)
    1528: 23 07                        	andl	(%edi), %eax
    152a: 93                           	xchgl	%ebx, %eax
    152b: 01 72 1b                     	addl	%esi, 0x1b(%edx)
    152e: 23 08                        	andl	(%eax), %ecx
    1530: 93                           	xchgl	%ebx, %eax
    1531: 01 72 1b                     	addl	%esi, 0x1b(%edx)
    1534: 23 09                        	andl	(%ecx), %ecx
    1536: 93                           	xchgl	%ebx, %eax
    1537: 01 72 1b                     	addl	%esi, 0x1b(%edx)
    153a: 23 0a                        	andl	(%edx), %ecx
    153c: 93                           	xchgl	%ebx, %eax
    153d: 01 72 1b                     	addl	%esi, 0x1b(%edx)
    1540: 23 0b                        	andl	(%ebx), %ecx
    1542: 93                           	xchgl	%ebx, %eax
    1543: 01 72 1b                     	addl	%esi, 0x1b(%edx)
    1546: 23 0c 93                     	andl	(%ebx,%edx,4), %ecx
    1549: 01 72 1b                     	addl	%esi, 0x1b(%edx)
    154c: 23 0d 93 01 72 1b            	andl	0x1b720193, %ecx
    1552: 23 0e                        	andl	(%esi), %ecx
    1554: 93                           	xchgl	%ebx, %eax
    1555: 01 72 1b                     	addl	%esi, 0x1b(%edx)
    1558: 23 0f                        	andl	(%edi), %ecx
    155a: 93                           	xchgl	%ebx, %eax
    155b: 01 72 1b                     	addl	%esi, 0x1b(%edx)
    155e: 23 10                        	andl	(%eax), %edx
    1560: 93                           	xchgl	%ebx, %eax
    1561: 01 04 fa                     	addl	%eax, (%edx,%edi,8)
    1564: 0c fe                        	orb	$-0x2, %al
    1566: 0c 5c                        	orb	$0x5c, %al
    1568: 93                           	xchgl	%ebx, %eax
    1569: 02 72 1b                     	addb	0x1b(%edx), %dh
    156c: 23 02                        	andl	(%edx), %eax
    156e: 93                           	xchgl	%ebx, %eax
    156f: 01 72 1b                     	addl	%esi, 0x1b(%edx)
    1572: 23 03                        	andl	(%ebx), %eax
    1574: 93                           	xchgl	%ebx, %eax
    1575: 01 72 1b                     	addl	%esi, 0x1b(%edx)
    1578: 23 04 93                     	andl	(%ebx,%edx,4), %eax
    157b: 01 72 1b                     	addl	%esi, 0x1b(%edx)
    157e: 23 05 93 01 72 1b            	andl	0x1b720193, %eax
    1584: 23 06                        	andl	(%esi), %eax
    1586: 93                           	xchgl	%ebx, %eax
    1587: 01 72 1b                     	addl	%esi, 0x1b(%edx)
    158a: 23 07                        	andl	(%edi), %eax
    158c: 93                           	xchgl	%ebx, %eax
    158d: 01 72 1b                     	addl	%esi, 0x1b(%edx)
    1590: 23 08                        	andl	(%eax), %ecx
    1592: 93                           	xchgl	%ebx, %eax
    1593: 01 72 1b                     	addl	%esi, 0x1b(%edx)
    1596: 23 09                        	andl	(%ecx), %ecx
    1598: 93                           	xchgl	%ebx, %eax
    1599: 01 72 1b                     	addl	%esi, 0x1b(%edx)
    159c: 23 0a                        	andl	(%edx), %ecx
    159e: 93                           	xchgl	%ebx, %eax
    159f: 01 72 1b                     	addl	%esi, 0x1b(%edx)
    15a2: 23 0b                        	andl	(%ebx), %ecx
    15a4: 93                           	xchgl	%ebx, %eax
    15a5: 01 72 1b                     	addl	%esi, 0x1b(%edx)
    15a8: 23 0c 93                     	andl	(%ebx,%edx,4), %ecx
    15ab: 01 72 1b                     	addl	%esi, 0x1b(%edx)
    15ae: 23 0d 93 01 72 1b            	andl	0x1b720193, %ecx
    15b4: 23 0e                        	andl	(%esi), %ecx
    15b6: 93                           	xchgl	%ebx, %eax
    15b7: 01 72 1b                     	addl	%esi, 0x1b(%edx)
    15ba: 23 0f                        	andl	(%edi), %ecx
    15bc: 93                           	xchgl	%ebx, %eax
    15bd: 01 72 1b                     	addl	%esi, 0x1b(%edx)
    15c0: 23 10                        	andl	(%eax), %edx
    15c2: 93                           	xchgl	%ebx, %eax
    15c3: 01 04 fe                     	addl	%eax, (%esi,%edi,8)
    15c6: 0c c4                        	orb	$-0x3c, %al
    15c8: 0d 62 93 01 72               	orl	$0x72019362, %eax       # imm = 0x72019362
    15cd: 1b 23                        	sbbl	(%ebx), %esp
    15cf: 01 93 01 72 1b 23            	addl	%edx, 0x231b7201(%ebx)
    15d5: 02 93 01 72 1b 23            	addb	0x231b7201(%ebx), %dl
    15db: 03 93 01 72 1b 23            	addl	0x231b7201(%ebx), %edx
    15e1: 04 93                        	addb	$-0x6d, %al
    15e3: 01 72 1b                     	addl	%esi, 0x1b(%edx)
    15e6: 23 05 93 01 72 1b            	andl	0x1b720193, %eax
    15ec: 23 06                        	andl	(%esi), %eax
    15ee: 93                           	xchgl	%ebx, %eax
    15ef: 01 72 1b                     	addl	%esi, 0x1b(%edx)
    15f2: 23 07                        	andl	(%edi), %eax
    15f4: 93                           	xchgl	%ebx, %eax
    15f5: 01 72 1b                     	addl	%esi, 0x1b(%edx)
    15f8: 23 08                        	andl	(%eax), %ecx
    15fa: 93                           	xchgl	%ebx, %eax
    15fb: 01 72 1b                     	addl	%esi, 0x1b(%edx)
    15fe: 23 09                        	andl	(%ecx), %ecx
    1600: 93                           	xchgl	%ebx, %eax
    1601: 01 72 1b                     	addl	%esi, 0x1b(%edx)
    1604: 23 0a                        	andl	(%edx), %ecx
    1606: 93                           	xchgl	%ebx, %eax
    1607: 01 72 1b                     	addl	%esi, 0x1b(%edx)
    160a: 23 0b                        	andl	(%ebx), %ecx
    160c: 93                           	xchgl	%ebx, %eax
    160d: 01 72 1b                     	addl	%esi, 0x1b(%edx)
    1610: 23 0c 93                     	andl	(%ebx,%edx,4), %ecx
    1613: 01 72 1b                     	addl	%esi, 0x1b(%edx)
    1616: 23 0d 93 01 72 1b            	andl	0x1b720193, %ecx
    161c: 23 0e                        	andl	(%esi), %ecx
    161e: 93                           	xchgl	%ebx, %eax
    161f: 01 72 1b                     	addl	%esi, 0x1b(%edx)
    1622: 23 0f                        	andl	(%edi), %ecx
    1624: 93                           	xchgl	%ebx, %eax
    1625: 01 72 1b                     	addl	%esi, 0x1b(%edx)
    1628: 23 10                        	andl	(%eax), %edx
    162a: 93                           	xchgl	%ebx, %eax
    162b: 01 00                        	addl	%eax, (%eax)
    162d: 01 04 04                     	addl	%eax, (%esp,%eax)
    1630: ec                           	inb	%dx, %al
    1631: 0b a0 0c 03 11 0e            	orl	0xe11030c(%eax), %esp
    1637: 9f                           	lahf
    1638: 04 a0                        	addb	$-0x60, %al
    163a: 0c a4                        	orb	$-0x5c, %al
    163c: 0c 03                        	orb	$0x3, %al
    163e: 11 0d 9f 04 a4 0c            	adcl	%ecx, 0xca4049f
    1644: a8 0c                        	testb	$0xc, %al
    1646: 03 11                        	addl	(%ecx), %edx
    1648: 0c 9f                        	orb	$-0x61, %al
    164a: 04 a8                        	addb	$-0x58, %al
    164c: 0c ac                        	orb	$-0x54, %al
    164e: 0c 03                        	orb	$0x3, %al
    1650: 11 0b                        	adcl	%ecx, (%ebx)
    1652: 9f                           	lahf
    1653: 04 ac                        	addb	$-0x54, %al
    1655: 0c c8                        	orb	$-0x38, %al
    1657: 0c 03                        	orb	$0x3, %al
    1659: 11 0a                        	adcl	%ecx, (%edx)
    165b: 9f                           	lahf
    165c: 04 c8                        	addb	$-0x38, %al
    165e: 0c d2                        	orb	$-0x2e, %al
    1660: 0c 03                        	orb	$0x3, %al
    1662: 11 08                        	adcl	%ecx, (%eax)
    1664: 9f                           	lahf
    1665: 04 d2                        	addb	$-0x2e, %al
    1667: 0c da                        	orb	$-0x26, %al
    1669: 0c 03                        	orb	$0x3, %al
    166b: 11 09                        	adcl	%ecx, (%ecx)
    166d: 9f                           	lahf
    166e: 04 da                        	addb	$-0x26, %al
    1670: 0c e2                        	orb	$-0x1e, %al
    1672: 0c 03                        	orb	$0x3, %al
    1674: 11 0f                        	adcl	%ecx, (%edi)
    1676: 9f                           	lahf
    1677: 04 e2                        	addb	$-0x1e, %al
    1679: 0c e6                        	orb	$-0x1a, %al
    167b: 0c 03                        	orb	$0x3, %al
    167d: 11 07                        	adcl	%eax, (%edi)
    167f: 9f                           	lahf
    1680: 04 e6                        	addb	$-0x1a, %al
    1682: 0c ea                        	orb	$-0x16, %al
    1684: 0c 03                        	orb	$0x3, %al
    1686: 11 06                        	adcl	%eax, (%esi)
    1688: 9f                           	lahf
    1689: 04 ea                        	addb	$-0x16, %al
    168b: 0c ee                        	orb	$-0x12, %al
    168d: 0c 03                        	orb	$0x3, %al
    168f: 11 05 9f 04 ee 0c            	adcl	%eax, 0xcee049f
    1695: f2 0c 03                     	repne		orb	$0x3, %al
    1698: 11 04 9f                     	adcl	%eax, (%edi,%ebx,4)
    169b: 04 f2                        	addb	$-0xe, %al
    169d: 0c f6                        	orb	$-0xa, %al
    169f: 0c 03                        	orb	$0x3, %al
    16a1: 11 03                        	adcl	%eax, (%ebx)
    16a3: 9f                           	lahf
    16a4: 04 f6                        	addb	$-0xa, %al
    16a6: 0c fa                        	orb	$-0x6, %al
    16a8: 0c 03                        	orb	$0x3, %al
    16aa: 11 02                        	adcl	%eax, (%edx)
    16ac: 9f                           	lahf
    16ad: 04 fa                        	addb	$-0x6, %al
    16af: 0c fe                        	orb	$-0x2, %al
    16b1: 0c 03                        	orb	$0x3, %al
    16b3: 11 01                        	adcl	%eax, (%ecx)
    16b5: 9f                           	lahf
    16b6: 04 fe                        	addb	$-0x2, %al
    16b8: 0c ac                        	orb	$-0x54, %al
    16ba: 0d 03 11 7f 9f               	orl	$0x9f7f1103, %eax       # imm = 0x9F7F1103
    16bf: 00 01                        	addb	%al, (%ecx)
    16c1: 04 04                        	addb	$0x4, %al
    16c3: fe 0c 92                     	decb	(%edx,%edx,4)
    16c6: 0d 03 10 30 9f               	orl	$0x9f301003, %eax       # imm = 0x9F301003
    16cb: 04 92                        	addb	$-0x6e, %al
    16cd: 0d ac 0d 03 10               	orl	$0x10030dac, %eax       # imm = 0x10030DAC
    16d2: 78 9f                        	js	0x1673 <$d+0x1673>
    16d4: 00 01                        	addb	%al, (%ecx)
    16d6: 04 04                        	addb	$0x4, %al
    16d8: fe 0c 92                     	decb	(%edx,%edx,4)
    16db: 0d 03 11 00 9f               	orl	$0x9f001103, %eax       # imm = 0x9F001103
    16e0: 04 92                        	addb	$-0x6e, %al
    16e2: 0d aa 0d 03 11               	orl	$0x11030daa, %eax       # imm = 0x11030DAA
    16e7: 01 9f 04 aa 0d ac            	addl	%ebx, -0x53f255fc(%edi)
    16ed: 0d 03 11 02 9f               	orl	$0x9f021103, %eax       # imm = 0x9F021103
    16f2: 00 01                        	addb	%al, (%ecx)
    16f4: 04 04                        	addb	$0x4, %al
    16f6: ac                           	lodsb	(%esi), %al
    16f7: 0d bc 0d 09 78               	orl	$0x78090dbc, %eax       # imm = 0x78090DBC
    16fc: 00 11                        	addb	%dl, (%ecx)
    16fe: 01 72 1b                     	addl	%esi, 0x1b(%edx)
    1701: 22 1c 9f                     	andb	(%edi,%ebx,4), %bl
    1704: 04 bc                        	addb	$-0x44, %al
    1706: 0d c2 0d 0c 78               	orl	$0x780c0dc2, %eax       # imm = 0x780C0DC2
    170b: 00 11                        	addb	%dl, (%ecx)
    170d: 01 72 1b                     	addl	%esi, 0x1b(%edx)
    1710: 22 1c 11                     	andb	(%ecx,%edx), %bl
    1713: 01 22                        	addl	%esp, (%edx)
    1715: 9f                           	lahf
    1716: 00 01                        	addb	%al, (%ecx)
    1718: 04 04                        	addb	$0x4, %al
    171a: c4 0d d6 0d 03 11            	lesl	0x11030dd6, %ecx
    1720: 00 9f 04 d6 0d f4            	addb	%bl, -0xbf229fc(%edi)
    1726: 0d 03 11 01 9f               	orl	$0x9f011103, %eax       # imm = 0x9F011103
    172b: 00 01                        	addb	%al, (%ecx)
    172d: 04 04                        	addb	$0x4, %al
    172f: d6                           	salc
    1730: 0d b8 13 01 66               	orl	$0x660113b8, %eax       # imm = 0x660113B8
    1735: 00 01                        	addb	%al, (%ecx)
    1737: 04 04                        	addb	$0x4, %al
    1739: d6                           	salc
    173a: 0d b6 13 01 67               	orl	$0x670113b6, %eax       # imm = 0x670113B6
    173f: 00 01                        	addb	%al, (%ecx)
    1741: 04 04                        	addb	$0x4, %al
    1743: d6                           	salc
    1744: 0d be 13 02 72               	orl	$0x720213be, %eax       # imm = 0x720213BE
    1749: 14 00                        	adcb	$0x0, %al
    174b: 01 04 04                     	addl	%eax, (%esp,%eax)
    174e: d6                           	salc
    174f: 0d b2 13 01 64               	orl	$0x640113b2, %eax       # imm = 0x640113B2
    1754: 00 01                        	addb	%al, (%ecx)
    1756: 04 04                        	addb	$0x4, %al
    1758: d6                           	salc
    1759: 0d b0 13 01 65               	orl	$0x650113b0, %eax       # imm = 0x650113B0
    175e: 00 01                        	addb	%al, (%ecx)
    1760: 04 04                        	addb	$0x4, %al
    1762: d6                           	salc
    1763: 0d ae 13 01 63               	orl	$0x630113ae, %eax       # imm = 0x630113AE
    1768: 00 01                        	addb	%al, (%ecx)
    176a: 04 04                        	addb	$0x4, %al
    176c: d6                           	salc
    176d: 0d ee 0d 01 62               	orl	$0x62010dee, %eax       # imm = 0x62010DEE
    1772: 04 dc                        	addb	$-0x24, %al
    1774: 0f ac 13 01                  	shrdl	$0x1, %edx, (%ebx)
    1778: 62 00                        	bound	%eax, (%eax)
    177a: 01 04 04                     	addl	%eax, (%esp,%eax)
    177d: d6                           	salc
    177e: 0d fa 0e 01 59               	orl	$0x59010efa, %eax       # imm = 0x59010EFA
    1783: 00 01                        	addb	%al, (%ecx)
    1785: 04 04                        	addb	$0x4, %al
    1787: a0 0e d4 0e 08               	movb	0x80ed40e, %al
    178c: 93                           	xchgl	%ebx, %eax
    178d: 0f 72 1b                     	<unknown>
    1790: 23 0f                        	andl	(%edi), %ecx
    1792: 93                           	xchgl	%ebx, %eax
    1793: 01 04 d4                     	addl	%eax, (%esp,%edx,8)
    1796: 0e                           	pushl	%cs
    1797: d8 0e                        	fmuls	(%esi)
    1799: 0e                           	pushl	%cs
    179a: 93                           	xchgl	%ebx, %eax
    179b: 0e                           	pushl	%cs
    179c: 72 1b                        	jb	0x17b9 <$d+0x17b9>
    179e: 23 0e                        	andl	(%esi), %ecx
    17a0: 93                           	xchgl	%ebx, %eax
    17a1: 01 72 1b                     	addl	%esi, 0x1b(%edx)
    17a4: 23 0f                        	andl	(%edi), %ecx
    17a6: 93                           	xchgl	%ebx, %eax
    17a7: 01 04 d8                     	addl	%eax, (%eax,%ebx,8)
    17aa: 0e                           	pushl	%cs
    17ab: dc 0e                        	fmull	(%esi)
    17ad: 14 93                        	adcb	$-0x6d, %al
    17af: 0d 72 1b 23 0d               	orl	$0xd231b72, %eax        # imm = 0xD231B72
    17b4: 93                           	xchgl	%ebx, %eax
    17b5: 01 72 1b                     	addl	%esi, 0x1b(%edx)
    17b8: 23 0e                        	andl	(%esi), %ecx
    17ba: 93                           	xchgl	%ebx, %eax
    17bb: 01 72 1b                     	addl	%esi, 0x1b(%edx)
    17be: 23 0f                        	andl	(%edi), %ecx
    17c0: 93                           	xchgl	%ebx, %eax
    17c1: 01 04 dc                     	addl	%eax, (%esp,%ebx,8)
    17c4: 0e                           	pushl	%cs
    17c5: e0 0e                        	loopne	0x17d5 <$d+0x17d5>
    17c7: 1a 93 0c 72 1b 23            	sbbb	0x231b720c(%ebx), %dl
    17cd: 0c 93                        	orb	$-0x6d, %al
    17cf: 01 72 1b                     	addl	%esi, 0x1b(%edx)
    17d2: 23 0d 93 01 72 1b            	andl	0x1b720193, %ecx
    17d8: 23 0e                        	andl	(%esi), %ecx
    17da: 93                           	xchgl	%ebx, %eax
    17db: 01 72 1b                     	addl	%esi, 0x1b(%edx)
    17de: 23 0f                        	andl	(%edi), %ecx
    17e0: 93                           	xchgl	%ebx, %eax
    17e1: 01 04 e0                     	addl	%eax, (%eax,%eiz,8)
    17e4: 0e                           	pushl	%cs
    17e5: 84 0f                        	testb	%cl, (%edi)
    17e7: 20 93 0b 72 1b 23            	andb	%dl, 0x231b720b(%ebx)
    17ed: 0b 93 01 72 1b 23            	orl	0x231b7201(%ebx), %edx
    17f3: 0c 93                        	orb	$-0x6d, %al
    17f5: 01 72 1b                     	addl	%esi, 0x1b(%edx)
    17f8: 23 0d 93 01 72 1b            	andl	0x1b720193, %ecx
    17fe: 23 0e                        	andl	(%esi), %ecx
    1800: 93                           	xchgl	%ebx, %eax
    1801: 01 72 1b                     	addl	%esi, 0x1b(%edx)
    1804: 23 0f                        	andl	(%edi), %ecx
    1806: 93                           	xchgl	%ebx, %eax
    1807: 01 04 84                     	addl	%eax, (%esp,%eax,4)
    180a: 0f 88 0f 26 93 0a            	js	0xa933e1f <$d+0xa933e1f>
    1810: 72 1b                        	jb	0x182d <$d+0x182d>
    1812: 23 0a                        	andl	(%edx), %ecx
    1814: 93                           	xchgl	%ebx, %eax
    1815: 01 72 1b                     	addl	%esi, 0x1b(%edx)
    1818: 23 0b                        	andl	(%ebx), %ecx
    181a: 93                           	xchgl	%ebx, %eax
    181b: 01 72 1b                     	addl	%esi, 0x1b(%edx)
    181e: 23 0c 93                     	andl	(%ebx,%edx,4), %ecx
    1821: 01 72 1b                     	addl	%esi, 0x1b(%edx)
    1824: 23 0d 93 01 72 1b            	andl	0x1b720193, %ecx
    182a: 23 0e                        	andl	(%esi), %ecx
    182c: 93                           	xchgl	%ebx, %eax
    182d: 01 72 1b                     	addl	%esi, 0x1b(%edx)
    1830: 23 0f                        	andl	(%edi), %ecx
    1832: 93                           	xchgl	%ebx, %eax
    1833: 01 04 88                     	addl	%eax, (%eax,%ecx,4)
    1836: 0f 8c 0f 2c 93 0a            	jl	0xa93444b <$d+0xa93444b>
    183c: 72 1b                        	jb	0x1859 <$d+0x1859>
    183e: 23 0a                        	andl	(%edx), %ecx
    1840: 93                           	xchgl	%ebx, %eax
    1841: 01 72 1b                     	addl	%esi, 0x1b(%edx)
    1844: 23 0b                        	andl	(%ebx), %ecx
    1846: 93                           	xchgl	%ebx, %eax
    1847: 01 72 1b                     	addl	%esi, 0x1b(%edx)
    184a: 23 0c 93                     	andl	(%ebx,%edx,4), %ecx
    184d: 01 72 1b                     	addl	%esi, 0x1b(%edx)
    1850: 23 0d 93 01 72 1b            	andl	0x1b720193, %ecx
    1856: 23 0e                        	andl	(%esi), %ecx
    1858: 93                           	xchgl	%ebx, %eax
    1859: 01 72 1b                     	addl	%esi, 0x1b(%edx)
    185c: 23 0f                        	andl	(%edi), %ecx
    185e: 93                           	xchgl	%ebx, %eax
    185f: 01 72 1b                     	addl	%esi, 0x1b(%edx)
    1862: 23 10                        	andl	(%eax), %edx
    1864: 93                           	xchgl	%ebx, %eax
    1865: 01 04 8c                     	addl	%eax, (%esp,%ecx,4)
    1868: 0f 94 0f                     	sete	(%edi)
    186b: 32 93 09 72 1b 23            	xorb	0x231b7209(%ebx), %dl
    1871: 09 93 01 72 1b 23            	orl	%edx, 0x231b7201(%ebx)
    1877: 0a 93 01 72 1b 23            	orb	0x231b7201(%ebx), %dl
    187d: 0b 93 01 72 1b 23            	orl	0x231b7201(%ebx), %edx
    1883: 0c 93                        	orb	$-0x6d, %al
    1885: 01 72 1b                     	addl	%esi, 0x1b(%edx)
    1888: 23 0d 93 01 72 1b            	andl	0x1b720193, %ecx
    188e: 23 0e                        	andl	(%esi), %ecx
    1890: 93                           	xchgl	%ebx, %eax
    1891: 01 72 1b                     	addl	%esi, 0x1b(%edx)
    1894: 23 0f                        	andl	(%edi), %ecx
    1896: 93                           	xchgl	%ebx, %eax
    1897: 01 72 1b                     	addl	%esi, 0x1b(%edx)
    189a: 23 10                        	andl	(%eax), %edx
    189c: 93                           	xchgl	%ebx, %eax
    189d: 01 04 94                     	addl	%eax, (%esp,%edx,4)
    18a0: 0f 98 0f                     	sets	(%edi)
    18a3: 38 93 08 72 1b 23            	cmpb	%dl, 0x231b7208(%ebx)
    18a9: 08 93 01 72 1b 23            	orb	%dl, 0x231b7201(%ebx)
    18af: 09 93 01 72 1b 23            	orl	%edx, 0x231b7201(%ebx)
    18b5: 0a 93 01 72 1b 23            	orb	0x231b7201(%ebx), %dl
    18bb: 0b 93 01 72 1b 23            	orl	0x231b7201(%ebx), %edx
    18c1: 0c 93                        	orb	$-0x6d, %al
    18c3: 01 72 1b                     	addl	%esi, 0x1b(%edx)
    18c6: 23 0d 93 01 72 1b            	andl	0x1b720193, %ecx
    18cc: 23 0e                        	andl	(%esi), %ecx
    18ce: 93                           	xchgl	%ebx, %eax
    18cf: 01 72 1b                     	addl	%esi, 0x1b(%edx)
    18d2: 23 0f                        	andl	(%edi), %ecx
    18d4: 93                           	xchgl	%ebx, %eax
    18d5: 01 72 1b                     	addl	%esi, 0x1b(%edx)
    18d8: 23 10                        	andl	(%eax), %edx
    18da: 93                           	xchgl	%ebx, %eax
    18db: 01 04 98                     	addl	%eax, (%eax,%ebx,4)
    18de: 0f 9c 0f                     	setl	(%edi)
    18e1: 3e 93                        	xchgl	%ebx, %eax
    18e3: 07                           	popl	%es
    18e4: 72 1b                        	jb	0x1901 <$d+0x1901>
    18e6: 23 07                        	andl	(%edi), %eax
    18e8: 93                           	xchgl	%ebx, %eax
    18e9: 01 72 1b                     	addl	%esi, 0x1b(%edx)
    18ec: 23 08                        	andl	(%eax), %ecx
    18ee: 93                           	xchgl	%ebx, %eax
    18ef: 01 72 1b                     	addl	%esi, 0x1b(%edx)
    18f2: 23 09                        	andl	(%ecx), %ecx
    18f4: 93                           	xchgl	%ebx, %eax
    18f5: 01 72 1b                     	addl	%esi, 0x1b(%edx)
    18f8: 23 0a                        	andl	(%edx), %ecx
    18fa: 93                           	xchgl	%ebx, %eax
    18fb: 01 72 1b                     	addl	%esi, 0x1b(%edx)
    18fe: 23 0b                        	andl	(%ebx), %ecx
    1900: 93                           	xchgl	%ebx, %eax
    1901: 01 72 1b                     	addl	%esi, 0x1b(%edx)
    1904: 23 0c 93                     	andl	(%ebx,%edx,4), %ecx
    1907: 01 72 1b                     	addl	%esi, 0x1b(%edx)
    190a: 23 0d 93 01 72 1b            	andl	0x1b720193, %ecx
    1910: 23 0e                        	andl	(%esi), %ecx
    1912: 93                           	xchgl	%ebx, %eax
    1913: 01 72 1b                     	addl	%esi, 0x1b(%edx)
    1916: 23 0f                        	andl	(%edi), %ecx
    1918: 93                           	xchgl	%ebx, %eax
    1919: 01 72 1b                     	addl	%esi, 0x1b(%edx)
    191c: 23 10                        	andl	(%eax), %edx
    191e: 93                           	xchgl	%ebx, %eax
    191f: 01 04 9c                     	addl	%eax, (%esp,%ebx,4)
    1922: 0f a0                        	pushl	%fs
    1924: 0f 44 93 06 72 1b 23         	cmovel	0x231b7206(%ebx), %edx
    192b: 06                           	pushl	%es
    192c: 93                           	xchgl	%ebx, %eax
    192d: 01 72 1b                     	addl	%esi, 0x1b(%edx)
    1930: 23 07                        	andl	(%edi), %eax
    1932: 93                           	xchgl	%ebx, %eax
    1933: 01 72 1b                     	addl	%esi, 0x1b(%edx)
    1936: 23 08                        	andl	(%eax), %ecx
    1938: 93                           	xchgl	%ebx, %eax
    1939: 01 72 1b                     	addl	%esi, 0x1b(%edx)
    193c: 23 09                        	andl	(%ecx), %ecx
    193e: 93                           	xchgl	%ebx, %eax
    193f: 01 72 1b                     	addl	%esi, 0x1b(%edx)
    1942: 23 0a                        	andl	(%edx), %ecx
    1944: 93                           	xchgl	%ebx, %eax
    1945: 01 72 1b                     	addl	%esi, 0x1b(%edx)
    1948: 23 0b                        	andl	(%ebx), %ecx
    194a: 93                           	xchgl	%ebx, %eax
    194b: 01 72 1b                     	addl	%esi, 0x1b(%edx)
    194e: 23 0c 93                     	andl	(%ebx,%edx,4), %ecx
    1951: 01 72 1b                     	addl	%esi, 0x1b(%edx)
    1954: 23 0d 93 01 72 1b            	andl	0x1b720193, %ecx
    195a: 23 0e                        	andl	(%esi), %ecx
    195c: 93                           	xchgl	%ebx, %eax
    195d: 01 72 1b                     	addl	%esi, 0x1b(%edx)
    1960: 23 0f                        	andl	(%edi), %ecx
    1962: 93                           	xchgl	%ebx, %eax
    1963: 01 72 1b                     	addl	%esi, 0x1b(%edx)
    1966: 23 10                        	andl	(%eax), %edx
    1968: 93                           	xchgl	%ebx, %eax
    1969: 01 04 a0                     	addl	%eax, (%eax,%eiz,4)
    196c: 0f a4 0f 4a                  	shldl	$0x4a, %ecx, (%edi)
    1970: 93                           	xchgl	%ebx, %eax
    1971: 05 72 1b 23 05               	addl	$0x5231b72, %eax        # imm = 0x5231B72
    1976: 93                           	xchgl	%ebx, %eax
    1977: 01 72 1b                     	addl	%esi, 0x1b(%edx)
    197a: 23 06                        	andl	(%esi), %eax
    197c: 93                           	xchgl	%ebx, %eax
    197d: 01 72 1b                     	addl	%esi, 0x1b(%edx)
    1980: 23 07                        	andl	(%edi), %eax
    1982: 93                           	xchgl	%ebx, %eax
    1983: 01 72 1b                     	addl	%esi, 0x1b(%edx)
    1986: 23 08                        	andl	(%eax), %ecx
    1988: 93                           	xchgl	%ebx, %eax
    1989: 01 72 1b                     	addl	%esi, 0x1b(%edx)
    198c: 23 09                        	andl	(%ecx), %ecx
    198e: 93                           	xchgl	%ebx, %eax
    198f: 01 72 1b                     	addl	%esi, 0x1b(%edx)
    1992: 23 0a                        	andl	(%edx), %ecx
    1994: 93                           	xchgl	%ebx, %eax
    1995: 01 72 1b                     	addl	%esi, 0x1b(%edx)
    1998: 23 0b                        	andl	(%ebx), %ecx
    199a: 93                           	xchgl	%ebx, %eax
    199b: 01 72 1b                     	addl	%esi, 0x1b(%edx)
    199e: 23 0c 93                     	andl	(%ebx,%edx,4), %ecx
    19a1: 01 72 1b                     	addl	%esi, 0x1b(%edx)
    19a4: 23 0d 93 01 72 1b            	andl	0x1b720193, %ecx
    19aa: 23 0e                        	andl	(%esi), %ecx
    19ac: 93                           	xchgl	%ebx, %eax
    19ad: 01 72 1b                     	addl	%esi, 0x1b(%edx)
    19b0: 23 0f                        	andl	(%edi), %ecx
    19b2: 93                           	xchgl	%ebx, %eax
    19b3: 01 72 1b                     	addl	%esi, 0x1b(%edx)
    19b6: 23 10                        	andl	(%eax), %edx
    19b8: 93                           	xchgl	%ebx, %eax
    19b9: 01 04 a4                     	addl	%eax, (%esp,%eiz,4)
    19bc: 0f a8                        	pushl	%gs
    19be: 0f 50 93 04 72 1b 23         	<unknown>
    19c5: 04 93                        	addb	$-0x6d, %al
    19c7: 01 72 1b                     	addl	%esi, 0x1b(%edx)
    19ca: 23 05 93 01 72 1b            	andl	0x1b720193, %eax
    19d0: 23 06                        	andl	(%esi), %eax
    19d2: 93                           	xchgl	%ebx, %eax
    19d3: 01 72 1b                     	addl	%esi, 0x1b(%edx)
    19d6: 23 07                        	andl	(%edi), %eax
    19d8: 93                           	xchgl	%ebx, %eax
    19d9: 01 72 1b                     	addl	%esi, 0x1b(%edx)
    19dc: 23 08                        	andl	(%eax), %ecx
    19de: 93                           	xchgl	%ebx, %eax
    19df: 01 72 1b                     	addl	%esi, 0x1b(%edx)
    19e2: 23 09                        	andl	(%ecx), %ecx
    19e4: 93                           	xchgl	%ebx, %eax
    19e5: 01 72 1b                     	addl	%esi, 0x1b(%edx)
    19e8: 23 0a                        	andl	(%edx), %ecx
    19ea: 93                           	xchgl	%ebx, %eax
    19eb: 01 72 1b                     	addl	%esi, 0x1b(%edx)
    19ee: 23 0b                        	andl	(%ebx), %ecx
    19f0: 93                           	xchgl	%ebx, %eax
    19f1: 01 72 1b                     	addl	%esi, 0x1b(%edx)
    19f4: 23 0c 93                     	andl	(%ebx,%edx,4), %ecx
    19f7: 01 72 1b                     	addl	%esi, 0x1b(%edx)
    19fa: 23 0d 93 01 72 1b            	andl	0x1b720193, %ecx
    1a00: 23 0e                        	andl	(%esi), %ecx
    1a02: 93                           	xchgl	%ebx, %eax
    1a03: 01 72 1b                     	addl	%esi, 0x1b(%edx)
    1a06: 23 0f                        	andl	(%edi), %ecx
    1a08: 93                           	xchgl	%ebx, %eax
    1a09: 01 72 1b                     	addl	%esi, 0x1b(%edx)
    1a0c: 23 10                        	andl	(%eax), %edx
    1a0e: 93                           	xchgl	%ebx, %eax
    1a0f: 01 04 a8                     	addl	%eax, (%eax,%ebp,4)
    1a12: 0f ac 0f 56                  	shrdl	$0x56, %ecx, (%edi)
    1a16: 93                           	xchgl	%ebx, %eax
    1a17: 03 72 1b                     	addl	0x1b(%edx), %esi
    1a1a: 23 03                        	andl	(%ebx), %eax
    1a1c: 93                           	xchgl	%ebx, %eax
    1a1d: 01 72 1b                     	addl	%esi, 0x1b(%edx)
    1a20: 23 04 93                     	andl	(%ebx,%edx,4), %eax
    1a23: 01 72 1b                     	addl	%esi, 0x1b(%edx)
    1a26: 23 05 93 01 72 1b            	andl	0x1b720193, %eax
    1a2c: 23 06                        	andl	(%esi), %eax
    1a2e: 93                           	xchgl	%ebx, %eax
    1a2f: 01 72 1b                     	addl	%esi, 0x1b(%edx)
    1a32: 23 07                        	andl	(%edi), %eax
    1a34: 93                           	xchgl	%ebx, %eax
    1a35: 01 72 1b                     	addl	%esi, 0x1b(%edx)
    1a38: 23 08                        	andl	(%eax), %ecx
    1a3a: 93                           	xchgl	%ebx, %eax
    1a3b: 01 72 1b                     	addl	%esi, 0x1b(%edx)
    1a3e: 23 09                        	andl	(%ecx), %ecx
    1a40: 93                           	xchgl	%ebx, %eax
    1a41: 01 72 1b                     	addl	%esi, 0x1b(%edx)
    1a44: 23 0a                        	andl	(%edx), %ecx
    1a46: 93                           	xchgl	%ebx, %eax
    1a47: 01 72 1b                     	addl	%esi, 0x1b(%edx)
    1a4a: 23 0b                        	andl	(%ebx), %ecx
    1a4c: 93                           	xchgl	%ebx, %eax
    1a4d: 01 72 1b                     	addl	%esi, 0x1b(%edx)
    1a50: 23 0c 93                     	andl	(%ebx,%edx,4), %ecx
    1a53: 01 72 1b                     	addl	%esi, 0x1b(%edx)
    1a56: 23 0d 93 01 72 1b            	andl	0x1b720193, %ecx
    1a5c: 23 0e                        	andl	(%esi), %ecx
    1a5e: 93                           	xchgl	%ebx, %eax
    1a5f: 01 72 1b                     	addl	%esi, 0x1b(%edx)
    1a62: 23 0f                        	andl	(%edi), %ecx
    1a64: 93                           	xchgl	%ebx, %eax
    1a65: 01 72 1b                     	addl	%esi, 0x1b(%edx)
    1a68: 23 10                        	andl	(%eax), %edx
    1a6a: 93                           	xchgl	%ebx, %eax
    1a6b: 01 04 ac                     	addl	%eax, (%esp,%ebp,4)
    1a6e: 0f b0 0f                     	cmpxchgb	%cl, (%edi)
    1a71: 5c                           	popl	%esp
    1a72: 93                           	xchgl	%ebx, %eax
    1a73: 02 72 1b                     	addb	0x1b(%edx), %dh
    1a76: 23 02                        	andl	(%edx), %eax
    1a78: 93                           	xchgl	%ebx, %eax
    1a79: 01 72 1b                     	addl	%esi, 0x1b(%edx)
    1a7c: 23 03                        	andl	(%ebx), %eax
    1a7e: 93                           	xchgl	%ebx, %eax
    1a7f: 01 72 1b                     	addl	%esi, 0x1b(%edx)
    1a82: 23 04 93                     	andl	(%ebx,%edx,4), %eax
    1a85: 01 72 1b                     	addl	%esi, 0x1b(%edx)
    1a88: 23 05 93 01 72 1b            	andl	0x1b720193, %eax
    1a8e: 23 06                        	andl	(%esi), %eax
    1a90: 93                           	xchgl	%ebx, %eax
    1a91: 01 72 1b                     	addl	%esi, 0x1b(%edx)
    1a94: 23 07                        	andl	(%edi), %eax
    1a96: 93                           	xchgl	%ebx, %eax
    1a97: 01 72 1b                     	addl	%esi, 0x1b(%edx)
    1a9a: 23 08                        	andl	(%eax), %ecx
    1a9c: 93                           	xchgl	%ebx, %eax
    1a9d: 01 72 1b                     	addl	%esi, 0x1b(%edx)
    1aa0: 23 09                        	andl	(%ecx), %ecx
    1aa2: 93                           	xchgl	%ebx, %eax
    1aa3: 01 72 1b                     	addl	%esi, 0x1b(%edx)
    1aa6: 23 0a                        	andl	(%edx), %ecx
    1aa8: 93                           	xchgl	%ebx, %eax
    1aa9: 01 72 1b                     	addl	%esi, 0x1b(%edx)
    1aac: 23 0b                        	andl	(%ebx), %ecx
    1aae: 93                           	xchgl	%ebx, %eax
    1aaf: 01 72 1b                     	addl	%esi, 0x1b(%edx)
    1ab2: 23 0c 93                     	andl	(%ebx,%edx,4), %ecx
    1ab5: 01 72 1b                     	addl	%esi, 0x1b(%edx)
    1ab8: 23 0d 93 01 72 1b            	andl	0x1b720193, %ecx
    1abe: 23 0e                        	andl	(%esi), %ecx
    1ac0: 93                           	xchgl	%ebx, %eax
    1ac1: 01 72 1b                     	addl	%esi, 0x1b(%edx)
    1ac4: 23 0f                        	andl	(%edi), %ecx
    1ac6: 93                           	xchgl	%ebx, %eax
    1ac7: 01 72 1b                     	addl	%esi, 0x1b(%edx)
    1aca: 23 10                        	andl	(%eax), %edx
    1acc: 93                           	xchgl	%ebx, %eax
    1acd: 01 04 b0                     	addl	%eax, (%eax,%esi,4)
    1ad0: 0f f6 0f                     	psadbw	(%edi), %mm1
    1ad3: 62 93 01 72 1b 23            	bound	%edx, 0x231b7201(%ebx)
    1ad9: 01 93 01 72 1b 23            	addl	%edx, 0x231b7201(%ebx)
    1adf: 02 93 01 72 1b 23            	addb	0x231b7201(%ebx), %dl
    1ae5: 03 93 01 72 1b 23            	addl	0x231b7201(%ebx), %edx
    1aeb: 04 93                        	addb	$-0x6d, %al
    1aed: 01 72 1b                     	addl	%esi, 0x1b(%edx)
    1af0: 23 05 93 01 72 1b            	andl	0x1b720193, %eax
    1af6: 23 06                        	andl	(%esi), %eax
    1af8: 93                           	xchgl	%ebx, %eax
    1af9: 01 72 1b                     	addl	%esi, 0x1b(%edx)
    1afc: 23 07                        	andl	(%edi), %eax
    1afe: 93                           	xchgl	%ebx, %eax
    1aff: 01 72 1b                     	addl	%esi, 0x1b(%edx)
    1b02: 23 08                        	andl	(%eax), %ecx
    1b04: 93                           	xchgl	%ebx, %eax
    1b05: 01 72 1b                     	addl	%esi, 0x1b(%edx)
    1b08: 23 09                        	andl	(%ecx), %ecx
    1b0a: 93                           	xchgl	%ebx, %eax
    1b0b: 01 72 1b                     	addl	%esi, 0x1b(%edx)
    1b0e: 23 0a                        	andl	(%edx), %ecx
    1b10: 93                           	xchgl	%ebx, %eax
    1b11: 01 72 1b                     	addl	%esi, 0x1b(%edx)
    1b14: 23 0b                        	andl	(%ebx), %ecx
    1b16: 93                           	xchgl	%ebx, %eax
    1b17: 01 72 1b                     	addl	%esi, 0x1b(%edx)
    1b1a: 23 0c 93                     	andl	(%ebx,%edx,4), %ecx
    1b1d: 01 72 1b                     	addl	%esi, 0x1b(%edx)
    1b20: 23 0d 93 01 72 1b            	andl	0x1b720193, %ecx
    1b26: 23 0e                        	andl	(%esi), %ecx
    1b28: 93                           	xchgl	%ebx, %eax
    1b29: 01 72 1b                     	addl	%esi, 0x1b(%edx)
    1b2c: 23 0f                        	andl	(%edi), %ecx
    1b2e: 93                           	xchgl	%ebx, %eax
    1b2f: 01 72 1b                     	addl	%esi, 0x1b(%edx)
    1b32: 23 10                        	andl	(%eax), %edx
    1b34: 93                           	xchgl	%ebx, %eax
    1b35: 01 00                        	addl	%eax, (%eax)
    1b37: 01 04 04                     	addl	%eax, (%esp,%eax)
    1b3a: 92                           	xchgl	%edx, %eax
    1b3b: 0e                           	pushl	%cs
    1b3c: a0 0e 01 59 04               	movb	0x459010e, %al
    1b41: fa                           	cli
    1b42: 0e                           	pushl	%cs
    1b43: fc                           	cld
    1b44: 0e                           	pushl	%cs
    1b45: 01 59 04                     	addl	%ebx, 0x4(%ecx)
    1b48: 94                           	xchgl	%esp, %eax
    1b49: 0f b0 0f                     	cmpxchgb	%cl, (%edi)
    1b4c: 02 30                        	addb	(%eax), %dh
    1b4e: 9f                           	lahf
    1b4f: 04 b0                        	addb	$-0x50, %al
    1b51: 0f f6 0f                     	psadbw	(%edi), %mm1
    1b54: 04 30                        	addb	$0x30, %al
    1b56: 34 25                        	xorb	$0x25, %al
    1b58: 9f                           	lahf
    1b59: 00 01                        	addb	%al, (%ecx)
    1b5b: 04 04                        	addb	$0x4, %al
    1b5d: a0 0e d4 0e 03               	movb	0x30ed40e, %al
    1b62: 11 0e                        	adcl	%ecx, (%esi)
    1b64: 9f                           	lahf
    1b65: 04 d4                        	addb	$-0x2c, %al
    1b67: 0e                           	pushl	%cs
    1b68: d8 0e                        	fmuls	(%esi)
    1b6a: 03 11                        	addl	(%ecx), %edx
    1b6c: 0d 9f 04 d8 0e               	orl	$0xed8049f, %eax        # imm = 0xED8049F
    1b71: dc 0e                        	fmull	(%esi)
    1b73: 03 11                        	addl	(%ecx), %edx
    1b75: 0c 9f                        	orb	$-0x61, %al
    1b77: 04 dc                        	addb	$-0x24, %al
    1b79: 0e                           	pushl	%cs
    1b7a: e0 0e                        	loopne	0x1b8a <$d+0x1b8a>
    1b7c: 03 11                        	addl	(%ecx), %edx
    1b7e: 0b 9f 04 e0 0e fa            	orl	-0x5f11ffc(%edi), %ebx
    1b84: 0e                           	pushl	%cs
    1b85: 03 11                        	addl	(%ecx), %edx
    1b87: 0a 9f 04 fa 0e 84            	orb	-0x7bf105fc(%edi), %bl
    1b8d: 0f 03 11                     	lsll	(%ecx), %edx
    1b90: 08 9f 04 84 0f 88            	orb	%bl, -0x77f07bfc(%edi)
    1b96: 0f 03 11                     	lsll	(%ecx), %edx
    1b99: 09 9f 04 88 0f 94            	orl	%ebx, -0x6bf077fc(%edi)
    1b9f: 0f 03 11                     	lsll	(%ecx), %edx
    1ba2: 0f 9f 04 94                  	setg	(%esp,%edx,4)
    1ba6: 0f 98 0f                     	sets	(%edi)
    1ba9: 03 11                        	addl	(%ecx), %edx
    1bab: 07                           	popl	%es
    1bac: 9f                           	lahf
    1bad: 04 98                        	addb	$-0x68, %al
    1baf: 0f 9c 0f                     	setl	(%edi)
    1bb2: 03 11                        	addl	(%ecx), %edx
    1bb4: 06                           	pushl	%es
    1bb5: 9f                           	lahf
    1bb6: 04 9c                        	addb	$-0x64, %al
    1bb8: 0f a0                        	pushl	%fs
    1bba: 0f 03 11                     	lsll	(%ecx), %edx
    1bbd: 05 9f 04 a0 0f               	addl	$0xfa0049f, %eax        # imm = 0xFA0049F
    1bc2: a4                           	movsb	(%esi), %es:(%edi)
    1bc3: 0f 03 11                     	lsll	(%ecx), %edx
    1bc6: 04 9f                        	addb	$-0x61, %al
    1bc8: 04 a4                        	addb	$-0x5c, %al
    1bca: 0f a8                        	pushl	%gs
    1bcc: 0f 03 11                     	lsll	(%ecx), %edx
    1bcf: 03 9f 04 a8 0f ac            	addl	-0x53f057fc(%edi), %ebx
    1bd5: 0f 03 11                     	lsll	(%ecx), %edx
    1bd8: 02 9f 04 ac 0f b0            	addb	-0x4ff053fc(%edi), %bl
    1bde: 0f 03 11                     	lsll	(%ecx), %edx
    1be1: 01 9f 04 b0 0f de            	addl	%ebx, -0x21f04ffc(%edi)
    1be7: 0f 03 11                     	lsll	(%ecx), %edx
    1bea: 7f 9f                        	jg	0x1b8b <$d+0x1b8b>
    1bec: 00 01                        	addb	%al, (%ecx)
    1bee: 04 04                        	addb	$0x4, %al
    1bf0: b0 0f                        	movb	$0xf, %al
    1bf2: c4 0f                        	lesl	(%edi), %ecx
    1bf4: 03 10                        	addl	(%eax), %edx
    1bf6: 30 9f 04 c4 0f de            	xorb	%bl, -0x21f03bfc(%edi)
    1bfc: 0f 03 10                     	lsll	(%eax), %edx
    1bff: 78 9f                        	js	0x1ba0 <$d+0x1ba0>
    1c01: 00 01                        	addb	%al, (%ecx)
    1c03: 04 04                        	addb	$0x4, %al
    1c05: b0 0f                        	movb	$0xf, %al
    1c07: c4 0f                        	lesl	(%edi), %ecx
    1c09: 03 11                        	addl	(%ecx), %edx
    1c0b: 00 9f 04 c4 0f dc            	addb	%bl, -0x23f03bfc(%edi)
    1c11: 0f 03 11                     	lsll	(%ecx), %edx
    1c14: 01 9f 04 dc 0f de            	addl	%ebx, -0x21f023fc(%edi)
    1c1a: 0f 03 11                     	lsll	(%ecx), %edx
    1c1d: 02 9f 00 01 04 04            	addb	0x4040100(%edi), %bl
    1c23: de 0f                        	fimuls	(%edi)
    1c25: ee                           	outb	%al, %dx
    1c26: 0f 09                        	wbinvd
    1c28: 78 00                        	js	0x1c2a <$d+0x1c2a>
    1c2a: 11 01                        	adcl	%eax, (%ecx)
    1c2c: 72 1b                        	jb	0x1c49 <$d+0x1c49>
    1c2e: 22 1c 9f                     	andb	(%edi,%ebx,4), %bl
    1c31: 04 ee                        	addb	$-0x12, %al
    1c33: 0f f4 0f                     	pmuludq	(%edi), %mm1
    1c36: 0c 78                        	orb	$0x78, %al
    1c38: 00 11                        	addb	%dl, (%ecx)
    1c3a: 01 72 1b                     	addl	%esi, 0x1b(%edx)
    1c3d: 22 1c 11                     	andb	(%ecx,%edx), %bl
    1c40: 01 22                        	addl	%esp, (%edx)
    1c42: 9f                           	lahf
    1c43: 00 01                        	addb	%al, (%ecx)
    1c45: 04 04                        	addb	$0x4, %al
    1c47: f6 0f                        	<unknown>
    1c49: 8a 10                        	movb	(%eax), %dl
    1c4b: 03 11                        	addl	(%ecx), %edx
    1c4d: 00 9f 04 8a 10 9e            	addb	%bl, -0x61ef75fc(%edi)
    1c53: 10 03                        	adcb	%al, (%ebx)
    1c55: 11 01                        	adcl	%eax, (%ecx)
    1c57: 9f                           	lahf
    1c58: 04 9e                        	addb	$-0x62, %al
    1c5a: 10 b2 10 03 11 02            	adcb	%dh, 0x2110310(%edx)
    1c60: 9f                           	lahf
    1c61: 04 b2                        	addb	$-0x4e, %al
    1c63: 10 c6                        	adcb	%al, %dh
    1c65: 10 03                        	adcb	%al, (%ebx)
    1c67: 11 03                        	adcl	%eax, (%ebx)
    1c69: 9f                           	lahf
    1c6a: 04 c6                        	addb	$-0x3a, %al
    1c6c: 10 da                        	adcb	%bl, %dl
    1c6e: 10 03                        	adcb	%al, (%ebx)
    1c70: 11 04 9f                     	adcl	%eax, (%edi,%ebx,4)
    1c73: 04 da                        	addb	$-0x26, %al
    1c75: 10 ee                        	adcb	%ch, %dh
    1c77: 10 03                        	adcb	%al, (%ebx)
    1c79: 11 05 9f 04 ee 10            	adcl	%eax, 0x10ee049f
    1c7f: 82 11 03                     	adcb	$0x3, (%ecx)
    1c82: 11 06                        	adcl	%eax, (%esi)
    1c84: 9f                           	lahf
    1c85: 04 82                        	addb	$-0x7e, %al
    1c87: 11 96 11 03 11 07            	adcl	%edx, 0x7110311(%esi)
    1c8d: 9f                           	lahf
    1c8e: 04 96                        	addb	$-0x6a, %al
    1c90: 11 aa 11 03 11 08            	adcl	%ebp, 0x8110311(%edx)
    1c96: 9f                           	lahf
    1c97: 04 aa                        	addb	$-0x56, %al
    1c99: 11 be 11 03 11 09            	adcl	%edi, 0x9110311(%esi)
    1c9f: 9f                           	lahf
    1ca0: 04 be                        	addb	$-0x42, %al
    1ca2: 11 90 13 03 11 0a            	adcl	%edx, 0xa110313(%eax)
    1ca8: 9f                           	lahf
    1ca9: 00 01                        	addb	%al, (%ecx)
    1cab: 04 04                        	addb	$0x4, %al
    1cad: f6 0f                        	<unknown>
    1caf: 8a 10                        	movb	(%eax), %dl
    1cb1: 03 10                        	addl	(%eax), %edx
    1cb3: 2c 9f                        	subb	$-0x61, %al
    1cb5: 04 8a                        	addb	$-0x76, %al
    1cb7: 10 9e 10 03 10 20            	adcb	%bl, 0x20100310(%esi)
    1cbd: 9f                           	lahf
    1cbe: 04 9e                        	addb	$-0x62, %al
    1cc0: 10 b2 10 03 10 76            	adcb	%dh, 0x76100310(%edx)
    1cc6: 9f                           	lahf
    1cc7: 04 b2                        	addb	$-0x4e, %al
    1cc9: 10 c6                        	adcb	%al, %dh
    1ccb: 10 03                        	adcb	%al, (%ebx)
    1ccd: 10 61 9f                     	adcb	%ah, -0x61(%ecx)
    1cd0: 04 c6                        	addb	$-0x3a, %al
    1cd2: 10 da                        	adcb	%bl, %dl
    1cd4: 10 03                        	adcb	%al, (%ebx)
    1cd6: 10 6c 9f 04                  	adcb	%ch, 0x4(%edi,%ebx,4)
    1cda: da 10                        	ficoml	(%eax)
    1cdc: ee                           	outb	%al, %dx
    1cdd: 10 03                        	adcb	%al, (%ebx)
    1cdf: 10 75 9f                     	adcb	%dh, -0x61(%ebp)
    1ce2: 04 ee                        	addb	$-0x12, %al
    1ce4: 10 82 11 03 10 65            	adcb	%al, 0x65100311(%edx)
    1cea: 9f                           	lahf
    1ceb: 04 82                        	addb	$-0x7e, %al
    1ced: 11 96 11 03 10 20            	adcl	%edx, 0x20100311(%esi)
    1cf3: 9f                           	lahf
    1cf4: 04 96                        	addb	$-0x6a, %al
    1cf6: 11 aa 11 03 10 3d            	adcl	%ebp, 0x3d100311(%edx)
    1cfc: 9f                           	lahf
    1cfd: 04 aa                        	addb	$-0x56, %al
    1cff: 11 90 13 03 10 20            	adcl	%edx, 0x20100313(%eax)
    1d05: 9f                           	lahf
    1d06: 00 01                        	addb	%al, (%ecx)
    1d08: 04 04                        	addb	$0x4, %al
    1d0a: be 11 cc 11 01               	movl	$0x111cc11, %esi        # imm = 0x111CC11
    1d0f: 62 04 a8                     	bound	%eax, (%eax,%ebp,4)
    1d12: 12 aa 12 01 5c 04            	adcb	0x45c0112(%edx), %ch
    1d18: c2 12 de                     	retl	$-0x21ee                # imm = 0xDE12
    1d1b: 12 02                        	adcb	(%edx), %al
    1d1d: 30 9f 04 de 12 aa            	xorb	%bl, -0x55ed21fc(%edi)
    1d23: 13 04 30                     	adcl	(%eax,%esi), %eax
    1d26: 34 25                        	xorb	$0x25, %al
    1d28: 9f                           	lahf
    1d29: 00 01                        	addb	%al, (%ecx)
    1d2b: 04 04                        	addb	$0x4, %al
    1d2d: cc                           	int3
    1d2e: 11 80 12 08 93 0f            	adcl	%eax, 0xf930812(%eax)
    1d34: 72 1b                        	jb	0x1d51 <$d+0x1d51>
    1d36: 23 0f                        	andl	(%edi), %ecx
    1d38: 93                           	xchgl	%ebx, %eax
    1d39: 01 04 80                     	addl	%eax, (%eax,%eax,4)
    1d3c: 12 84 12 0e 93 0e 72         	adcb	0x720e930e(%edx,%edx), %al
    1d43: 1b 23                        	sbbl	(%ebx), %esp
    1d45: 0e                           	pushl	%cs
    1d46: 93                           	xchgl	%ebx, %eax
    1d47: 01 72 1b                     	addl	%esi, 0x1b(%edx)
    1d4a: 23 0f                        	andl	(%edi), %ecx
    1d4c: 93                           	xchgl	%ebx, %eax
    1d4d: 01 04 84                     	addl	%eax, (%esp,%eax,4)
    1d50: 12 88 12 14 93 0d            	adcb	0xd931412(%eax), %cl
    1d56: 72 1b                        	jb	0x1d73 <$d+0x1d73>
    1d58: 23 0d 93 01 72 1b            	andl	0x1b720193, %ecx
    1d5e: 23 0e                        	andl	(%esi), %ecx
    1d60: 93                           	xchgl	%ebx, %eax
    1d61: 01 72 1b                     	addl	%esi, 0x1b(%edx)
    1d64: 23 0f                        	andl	(%edi), %ecx
    1d66: 93                           	xchgl	%ebx, %eax
    1d67: 01 04 88                     	addl	%eax, (%eax,%ecx,4)
    1d6a: 12 8c 12 1a 93 0c 72         	adcb	0x720c931a(%edx,%edx), %cl
    1d71: 1b 23                        	sbbl	(%ebx), %esp
    1d73: 0c 93                        	orb	$-0x6d, %al
    1d75: 01 72 1b                     	addl	%esi, 0x1b(%edx)
    1d78: 23 0d 93 01 72 1b            	andl	0x1b720193, %ecx
    1d7e: 23 0e                        	andl	(%esi), %ecx
    1d80: 93                           	xchgl	%ebx, %eax
    1d81: 01 72 1b                     	addl	%esi, 0x1b(%edx)
    1d84: 23 0f                        	andl	(%edi), %ecx
    1d86: 93                           	xchgl	%ebx, %eax
    1d87: 01 04 8c                     	addl	%eax, (%esp,%ecx,4)
    1d8a: 12 b2 12 20 93 0b            	adcb	0xb932012(%edx), %dh
    1d90: 72 1b                        	jb	0x1dad <$d+0x1dad>
    1d92: 23 0b                        	andl	(%ebx), %ecx
    1d94: 93                           	xchgl	%ebx, %eax
    1d95: 01 72 1b                     	addl	%esi, 0x1b(%edx)
    1d98: 23 0c 93                     	andl	(%ebx,%edx,4), %ecx
    1d9b: 01 72 1b                     	addl	%esi, 0x1b(%edx)
    1d9e: 23 0d 93 01 72 1b            	andl	0x1b720193, %ecx
    1da4: 23 0e                        	andl	(%esi), %ecx
    1da6: 93                           	xchgl	%ebx, %eax
    1da7: 01 72 1b                     	addl	%esi, 0x1b(%edx)
    1daa: 23 0f                        	andl	(%edi), %ecx
    1dac: 93                           	xchgl	%ebx, %eax
    1dad: 01 04 b2                     	addl	%eax, (%edx,%esi,4)
    1db0: 12 b6 12 26 93 0a            	adcb	0xa932612(%esi), %dh
    1db6: 72 1b                        	jb	0x1dd3 <$d+0x1dd3>
    1db8: 23 0a                        	andl	(%edx), %ecx
    1dba: 93                           	xchgl	%ebx, %eax
    1dbb: 01 72 1b                     	addl	%esi, 0x1b(%edx)
    1dbe: 23 0b                        	andl	(%ebx), %ecx
    1dc0: 93                           	xchgl	%ebx, %eax
    1dc1: 01 72 1b                     	addl	%esi, 0x1b(%edx)
    1dc4: 23 0c 93                     	andl	(%ebx,%edx,4), %ecx
    1dc7: 01 72 1b                     	addl	%esi, 0x1b(%edx)
    1dca: 23 0d 93 01 72 1b            	andl	0x1b720193, %ecx
    1dd0: 23 0e                        	andl	(%esi), %ecx
    1dd2: 93                           	xchgl	%ebx, %eax
    1dd3: 01 72 1b                     	addl	%esi, 0x1b(%edx)
    1dd6: 23 0f                        	andl	(%edi), %ecx
    1dd8: 93                           	xchgl	%ebx, %eax
    1dd9: 01 04 b6                     	addl	%eax, (%esi,%esi,4)
    1ddc: 12 ba 12 2c 93 0a            	adcb	0xa932c12(%edx), %bh
    1de2: 72 1b                        	jb	0x1dff <$d+0x1dff>
    1de4: 23 0a                        	andl	(%edx), %ecx
    1de6: 93                           	xchgl	%ebx, %eax
    1de7: 01 72 1b                     	addl	%esi, 0x1b(%edx)
    1dea: 23 0b                        	andl	(%ebx), %ecx
    1dec: 93                           	xchgl	%ebx, %eax
    1ded: 01 72 1b                     	addl	%esi, 0x1b(%edx)
    1df0: 23 0c 93                     	andl	(%ebx,%edx,4), %ecx
    1df3: 01 72 1b                     	addl	%esi, 0x1b(%edx)
    1df6: 23 0d 93 01 72 1b            	andl	0x1b720193, %ecx
    1dfc: 23 0e                        	andl	(%esi), %ecx
    1dfe: 93                           	xchgl	%ebx, %eax
    1dff: 01 72 1b                     	addl	%esi, 0x1b(%edx)
    1e02: 23 0f                        	andl	(%edi), %ecx
    1e04: 93                           	xchgl	%ebx, %eax
    1e05: 01 72 1b                     	addl	%esi, 0x1b(%edx)
    1e08: 23 10                        	andl	(%eax), %edx
    1e0a: 93                           	xchgl	%ebx, %eax
    1e0b: 01 04 ba                     	addl	%eax, (%edx,%edi,4)
    1e0e: 12 c2                        	adcb	%dl, %al
    1e10: 12 32                        	adcb	(%edx), %dh
    1e12: 93                           	xchgl	%ebx, %eax
    1e13: 09 72 1b                     	orl	%esi, 0x1b(%edx)
    1e16: 23 09                        	andl	(%ecx), %ecx
    1e18: 93                           	xchgl	%ebx, %eax
    1e19: 01 72 1b                     	addl	%esi, 0x1b(%edx)
    1e1c: 23 0a                        	andl	(%edx), %ecx
    1e1e: 93                           	xchgl	%ebx, %eax
    1e1f: 01 72 1b                     	addl	%esi, 0x1b(%edx)
    1e22: 23 0b                        	andl	(%ebx), %ecx
    1e24: 93                           	xchgl	%ebx, %eax
    1e25: 01 72 1b                     	addl	%esi, 0x1b(%edx)
    1e28: 23 0c 93                     	andl	(%ebx,%edx,4), %ecx
    1e2b: 01 72 1b                     	addl	%esi, 0x1b(%edx)
    1e2e: 23 0d 93 01 72 1b            	andl	0x1b720193, %ecx
    1e34: 23 0e                        	andl	(%esi), %ecx
    1e36: 93                           	xchgl	%ebx, %eax
    1e37: 01 72 1b                     	addl	%esi, 0x1b(%edx)
    1e3a: 23 0f                        	andl	(%edi), %ecx
    1e3c: 93                           	xchgl	%ebx, %eax
    1e3d: 01 72 1b                     	addl	%esi, 0x1b(%edx)
    1e40: 23 10                        	andl	(%eax), %edx
    1e42: 93                           	xchgl	%ebx, %eax
    1e43: 01 04 c2                     	addl	%eax, (%edx,%eax,8)
    1e46: 12 c6                        	adcb	%dh, %al
    1e48: 12 38                        	adcb	(%eax), %bh
    1e4a: 93                           	xchgl	%ebx, %eax
    1e4b: 08 72 1b                     	orb	%dh, 0x1b(%edx)
    1e4e: 23 08                        	andl	(%eax), %ecx
    1e50: 93                           	xchgl	%ebx, %eax
    1e51: 01 72 1b                     	addl	%esi, 0x1b(%edx)
    1e54: 23 09                        	andl	(%ecx), %ecx
    1e56: 93                           	xchgl	%ebx, %eax
    1e57: 01 72 1b                     	addl	%esi, 0x1b(%edx)
    1e5a: 23 0a                        	andl	(%edx), %ecx
    1e5c: 93                           	xchgl	%ebx, %eax
    1e5d: 01 72 1b                     	addl	%esi, 0x1b(%edx)
    1e60: 23 0b                        	andl	(%ebx), %ecx
    1e62: 93                           	xchgl	%ebx, %eax
    1e63: 01 72 1b                     	addl	%esi, 0x1b(%edx)
    1e66: 23 0c 93                     	andl	(%ebx,%edx,4), %ecx
    1e69: 01 72 1b                     	addl	%esi, 0x1b(%edx)
    1e6c: 23 0d 93 01 72 1b            	andl	0x1b720193, %ecx
    1e72: 23 0e                        	andl	(%esi), %ecx
    1e74: 93                           	xchgl	%ebx, %eax
    1e75: 01 72 1b                     	addl	%esi, 0x1b(%edx)
    1e78: 23 0f                        	andl	(%edi), %ecx
    1e7a: 93                           	xchgl	%ebx, %eax
    1e7b: 01 72 1b                     	addl	%esi, 0x1b(%edx)
    1e7e: 23 10                        	andl	(%eax), %edx
    1e80: 93                           	xchgl	%ebx, %eax
    1e81: 01 04 c6                     	addl	%eax, (%esi,%eax,8)
    1e84: 12 ca                        	adcb	%dl, %cl
    1e86: 12 3e                        	adcb	(%esi), %bh
    1e88: 93                           	xchgl	%ebx, %eax
    1e89: 07                           	popl	%es
    1e8a: 72 1b                        	jb	0x1ea7 <$d+0x1ea7>
    1e8c: 23 07                        	andl	(%edi), %eax
    1e8e: 93                           	xchgl	%ebx, %eax
    1e8f: 01 72 1b                     	addl	%esi, 0x1b(%edx)
    1e92: 23 08                        	andl	(%eax), %ecx
    1e94: 93                           	xchgl	%ebx, %eax
    1e95: 01 72 1b                     	addl	%esi, 0x1b(%edx)
    1e98: 23 09                        	andl	(%ecx), %ecx
    1e9a: 93                           	xchgl	%ebx, %eax
    1e9b: 01 72 1b                     	addl	%esi, 0x1b(%edx)
    1e9e: 23 0a                        	andl	(%edx), %ecx
    1ea0: 93                           	xchgl	%ebx, %eax
    1ea1: 01 72 1b                     	addl	%esi, 0x1b(%edx)
    1ea4: 23 0b                        	andl	(%ebx), %ecx
    1ea6: 93                           	xchgl	%ebx, %eax
    1ea7: 01 72 1b                     	addl	%esi, 0x1b(%edx)
    1eaa: 23 0c 93                     	andl	(%ebx,%edx,4), %ecx
    1ead: 01 72 1b                     	addl	%esi, 0x1b(%edx)
    1eb0: 23 0d 93 01 72 1b            	andl	0x1b720193, %ecx
    1eb6: 23 0e                        	andl	(%esi), %ecx
    1eb8: 93                           	xchgl	%ebx, %eax
    1eb9: 01 72 1b                     	addl	%esi, 0x1b(%edx)
    1ebc: 23 0f                        	andl	(%edi), %ecx
    1ebe: 93                           	xchgl	%ebx, %eax
    1ebf: 01 72 1b                     	addl	%esi, 0x1b(%edx)
    1ec2: 23 10                        	andl	(%eax), %edx
    1ec4: 93                           	xchgl	%ebx, %eax
    1ec5: 01 04 ca                     	addl	%eax, (%edx,%ecx,8)
    1ec8: 12 ce                        	adcb	%dh, %cl
    1eca: 12 44 93 06                  	adcb	0x6(%ebx,%edx,4), %al
    1ece: 72 1b                        	jb	0x1eeb <$d+0x1eeb>
    1ed0: 23 06                        	andl	(%esi), %eax
    1ed2: 93                           	xchgl	%ebx, %eax
    1ed3: 01 72 1b                     	addl	%esi, 0x1b(%edx)
    1ed6: 23 07                        	andl	(%edi), %eax
    1ed8: 93                           	xchgl	%ebx, %eax
    1ed9: 01 72 1b                     	addl	%esi, 0x1b(%edx)
    1edc: 23 08                        	andl	(%eax), %ecx
    1ede: 93                           	xchgl	%ebx, %eax
    1edf: 01 72 1b                     	addl	%esi, 0x1b(%edx)
    1ee2: 23 09                        	andl	(%ecx), %ecx
    1ee4: 93                           	xchgl	%ebx, %eax
    1ee5: 01 72 1b                     	addl	%esi, 0x1b(%edx)
    1ee8: 23 0a                        	andl	(%edx), %ecx
    1eea: 93                           	xchgl	%ebx, %eax
    1eeb: 01 72 1b                     	addl	%esi, 0x1b(%edx)
    1eee: 23 0b                        	andl	(%ebx), %ecx
    1ef0: 93                           	xchgl	%ebx, %eax
    1ef1: 01 72 1b                     	addl	%esi, 0x1b(%edx)
    1ef4: 23 0c 93                     	andl	(%ebx,%edx,4), %ecx
    1ef7: 01 72 1b                     	addl	%esi, 0x1b(%edx)
    1efa: 23 0d 93 01 72 1b            	andl	0x1b720193, %ecx
    1f00: 23 0e                        	andl	(%esi), %ecx
    1f02: 93                           	xchgl	%ebx, %eax
    1f03: 01 72 1b                     	addl	%esi, 0x1b(%edx)
    1f06: 23 0f                        	andl	(%edi), %ecx
    1f08: 93                           	xchgl	%ebx, %eax
    1f09: 01 72 1b                     	addl	%esi, 0x1b(%edx)
    1f0c: 23 10                        	andl	(%eax), %edx
    1f0e: 93                           	xchgl	%ebx, %eax
    1f0f: 01 04 ce                     	addl	%eax, (%esi,%ecx,8)
    1f12: 12 d2                        	adcb	%dl, %dl
    1f14: 12 4a 93                     	adcb	-0x6d(%edx), %cl
    1f17: 05 72 1b 23 05               	addl	$0x5231b72, %eax        # imm = 0x5231B72
    1f1c: 93                           	xchgl	%ebx, %eax
    1f1d: 01 72 1b                     	addl	%esi, 0x1b(%edx)
    1f20: 23 06                        	andl	(%esi), %eax
    1f22: 93                           	xchgl	%ebx, %eax
    1f23: 01 72 1b                     	addl	%esi, 0x1b(%edx)
    1f26: 23 07                        	andl	(%edi), %eax
    1f28: 93                           	xchgl	%ebx, %eax
    1f29: 01 72 1b                     	addl	%esi, 0x1b(%edx)
    1f2c: 23 08                        	andl	(%eax), %ecx
    1f2e: 93                           	xchgl	%ebx, %eax
    1f2f: 01 72 1b                     	addl	%esi, 0x1b(%edx)
    1f32: 23 09                        	andl	(%ecx), %ecx
    1f34: 93                           	xchgl	%ebx, %eax
    1f35: 01 72 1b                     	addl	%esi, 0x1b(%edx)
    1f38: 23 0a                        	andl	(%edx), %ecx
    1f3a: 93                           	xchgl	%ebx, %eax
    1f3b: 01 72 1b                     	addl	%esi, 0x1b(%edx)
    1f3e: 23 0b                        	andl	(%ebx), %ecx
    1f40: 93                           	xchgl	%ebx, %eax
    1f41: 01 72 1b                     	addl	%esi, 0x1b(%edx)
    1f44: 23 0c 93                     	andl	(%ebx,%edx,4), %ecx
    1f47: 01 72 1b                     	addl	%esi, 0x1b(%edx)
    1f4a: 23 0d 93 01 72 1b            	andl	0x1b720193, %ecx
    1f50: 23 0e                        	andl	(%esi), %ecx
    1f52: 93                           	xchgl	%ebx, %eax
    1f53: 01 72 1b                     	addl	%esi, 0x1b(%edx)
    1f56: 23 0f                        	andl	(%edi), %ecx
    1f58: 93                           	xchgl	%ebx, %eax
    1f59: 01 72 1b                     	addl	%esi, 0x1b(%edx)
    1f5c: 23 10                        	andl	(%eax), %edx
    1f5e: 93                           	xchgl	%ebx, %eax
    1f5f: 01 04 d2                     	addl	%eax, (%edx,%edx,8)
    1f62: 12 d6                        	adcb	%dh, %dl
    1f64: 12 50 93                     	adcb	-0x6d(%eax), %dl
    1f67: 04 72                        	addb	$0x72, %al
    1f69: 1b 23                        	sbbl	(%ebx), %esp
    1f6b: 04 93                        	addb	$-0x6d, %al
    1f6d: 01 72 1b                     	addl	%esi, 0x1b(%edx)
    1f70: 23 05 93 01 72 1b            	andl	0x1b720193, %eax
    1f76: 23 06                        	andl	(%esi), %eax
    1f78: 93                           	xchgl	%ebx, %eax
    1f79: 01 72 1b                     	addl	%esi, 0x1b(%edx)
    1f7c: 23 07                        	andl	(%edi), %eax
    1f7e: 93                           	xchgl	%ebx, %eax
    1f7f: 01 72 1b                     	addl	%esi, 0x1b(%edx)
    1f82: 23 08                        	andl	(%eax), %ecx
    1f84: 93                           	xchgl	%ebx, %eax
    1f85: 01 72 1b                     	addl	%esi, 0x1b(%edx)
    1f88: 23 09                        	andl	(%ecx), %ecx
    1f8a: 93                           	xchgl	%ebx, %eax
    1f8b: 01 72 1b                     	addl	%esi, 0x1b(%edx)
    1f8e: 23 0a                        	andl	(%edx), %ecx
    1f90: 93                           	xchgl	%ebx, %eax
    1f91: 01 72 1b                     	addl	%esi, 0x1b(%edx)
    1f94: 23 0b                        	andl	(%ebx), %ecx
    1f96: 93                           	xchgl	%ebx, %eax
    1f97: 01 72 1b                     	addl	%esi, 0x1b(%edx)
    1f9a: 23 0c 93                     	andl	(%ebx,%edx,4), %ecx
    1f9d: 01 72 1b                     	addl	%esi, 0x1b(%edx)
    1fa0: 23 0d 93 01 72 1b            	andl	0x1b720193, %ecx
    1fa6: 23 0e                        	andl	(%esi), %ecx
    1fa8: 93                           	xchgl	%ebx, %eax
    1fa9: 01 72 1b                     	addl	%esi, 0x1b(%edx)
    1fac: 23 0f                        	andl	(%edi), %ecx
    1fae: 93                           	xchgl	%ebx, %eax
    1faf: 01 72 1b                     	addl	%esi, 0x1b(%edx)
    1fb2: 23 10                        	andl	(%eax), %edx
    1fb4: 93                           	xchgl	%ebx, %eax
    1fb5: 01 04 d6                     	addl	%eax, (%esi,%edx,8)
    1fb8: 12 da                        	adcb	%dl, %bl
    1fba: 12 56 93                     	adcb	-0x6d(%esi), %dl
    1fbd: 03 72 1b                     	addl	0x1b(%edx), %esi
    1fc0: 23 03                        	andl	(%ebx), %eax
    1fc2: 93                           	xchgl	%ebx, %eax
    1fc3: 01 72 1b                     	addl	%esi, 0x1b(%edx)
    1fc6: 23 04 93                     	andl	(%ebx,%edx,4), %eax
    1fc9: 01 72 1b                     	addl	%esi, 0x1b(%edx)
    1fcc: 23 05 93 01 72 1b            	andl	0x1b720193, %eax
    1fd2: 23 06                        	andl	(%esi), %eax
    1fd4: 93                           	xchgl	%ebx, %eax
    1fd5: 01 72 1b                     	addl	%esi, 0x1b(%edx)
    1fd8: 23 07                        	andl	(%edi), %eax
    1fda: 93                           	xchgl	%ebx, %eax
    1fdb: 01 72 1b                     	addl	%esi, 0x1b(%edx)
    1fde: 23 08                        	andl	(%eax), %ecx
    1fe0: 93                           	xchgl	%ebx, %eax
    1fe1: 01 72 1b                     	addl	%esi, 0x1b(%edx)
    1fe4: 23 09                        	andl	(%ecx), %ecx
    1fe6: 93                           	xchgl	%ebx, %eax
    1fe7: 01 72 1b                     	addl	%esi, 0x1b(%edx)
    1fea: 23 0a                        	andl	(%edx), %ecx
    1fec: 93                           	xchgl	%ebx, %eax
    1fed: 01 72 1b                     	addl	%esi, 0x1b(%edx)
    1ff0: 23 0b                        	andl	(%ebx), %ecx
    1ff2: 93                           	xchgl	%ebx, %eax
    1ff3: 01 72 1b                     	addl	%esi, 0x1b(%edx)
    1ff6: 23 0c 93                     	andl	(%ebx,%edx,4), %ecx
    1ff9: 01 72 1b                     	addl	%esi, 0x1b(%edx)
    1ffc: 23 0d 93 01 72 1b            	andl	0x1b720193, %ecx
    2002: 23 0e                        	andl	(%esi), %ecx
    2004: 93                           	xchgl	%ebx, %eax
    2005: 01 72 1b                     	addl	%esi, 0x1b(%edx)
    2008: 23 0f                        	andl	(%edi), %ecx
    200a: 93                           	xchgl	%ebx, %eax
    200b: 01 72 1b                     	addl	%esi, 0x1b(%edx)
    200e: 23 10                        	andl	(%eax), %edx
    2010: 93                           	xchgl	%ebx, %eax
    2011: 01 04 da                     	addl	%eax, (%edx,%ebx,8)
    2014: 12 de                        	adcb	%dh, %bl
    2016: 12 5c 93 02                  	adcb	0x2(%ebx,%edx,4), %bl
    201a: 72 1b                        	jb	0x2037 <$d+0x2037>
    201c: 23 02                        	andl	(%edx), %eax
    201e: 93                           	xchgl	%ebx, %eax
    201f: 01 72 1b                     	addl	%esi, 0x1b(%edx)
    2022: 23 03                        	andl	(%ebx), %eax
    2024: 93                           	xchgl	%ebx, %eax
    2025: 01 72 1b                     	addl	%esi, 0x1b(%edx)
    2028: 23 04 93                     	andl	(%ebx,%edx,4), %eax
    202b: 01 72 1b                     	addl	%esi, 0x1b(%edx)
    202e: 23 05 93 01 72 1b            	andl	0x1b720193, %eax
    2034: 23 06                        	andl	(%esi), %eax
    2036: 93                           	xchgl	%ebx, %eax
    2037: 01 72 1b                     	addl	%esi, 0x1b(%edx)
    203a: 23 07                        	andl	(%edi), %eax
    203c: 93                           	xchgl	%ebx, %eax
    203d: 01 72 1b                     	addl	%esi, 0x1b(%edx)
    2040: 23 08                        	andl	(%eax), %ecx
    2042: 93                           	xchgl	%ebx, %eax
    2043: 01 72 1b                     	addl	%esi, 0x1b(%edx)
    2046: 23 09                        	andl	(%ecx), %ecx
    2048: 93                           	xchgl	%ebx, %eax
    2049: 01 72 1b                     	addl	%esi, 0x1b(%edx)
    204c: 23 0a                        	andl	(%edx), %ecx
    204e: 93                           	xchgl	%ebx, %eax
    204f: 01 72 1b                     	addl	%esi, 0x1b(%edx)
    2052: 23 0b                        	andl	(%ebx), %ecx
    2054: 93                           	xchgl	%ebx, %eax
    2055: 01 72 1b                     	addl	%esi, 0x1b(%edx)
    2058: 23 0c 93                     	andl	(%ebx,%edx,4), %ecx
    205b: 01 72 1b                     	addl	%esi, 0x1b(%edx)
    205e: 23 0d 93 01 72 1b            	andl	0x1b720193, %ecx
    2064: 23 0e                        	andl	(%esi), %ecx
    2066: 93                           	xchgl	%ebx, %eax
    2067: 01 72 1b                     	addl	%esi, 0x1b(%edx)
    206a: 23 0f                        	andl	(%edi), %ecx
    206c: 93                           	xchgl	%ebx, %eax
    206d: 01 72 1b                     	addl	%esi, 0x1b(%edx)
    2070: 23 10                        	andl	(%eax), %edx
    2072: 93                           	xchgl	%ebx, %eax
    2073: 01 04 de                     	addl	%eax, (%esi,%ebx,8)
    2076: 12 aa 13 62 93 01            	adcb	0x1936213(%edx), %ch
    207c: 72 1b                        	jb	0x2099 <$d+0x2099>
    207e: 23 01                        	andl	(%ecx), %eax
    2080: 93                           	xchgl	%ebx, %eax
    2081: 01 72 1b                     	addl	%esi, 0x1b(%edx)
    2084: 23 02                        	andl	(%edx), %eax
    2086: 93                           	xchgl	%ebx, %eax
    2087: 01 72 1b                     	addl	%esi, 0x1b(%edx)
    208a: 23 03                        	andl	(%ebx), %eax
    208c: 93                           	xchgl	%ebx, %eax
    208d: 01 72 1b                     	addl	%esi, 0x1b(%edx)
    2090: 23 04 93                     	andl	(%ebx,%edx,4), %eax
    2093: 01 72 1b                     	addl	%esi, 0x1b(%edx)
    2096: 23 05 93 01 72 1b            	andl	0x1b720193, %eax
    209c: 23 06                        	andl	(%esi), %eax
    209e: 93                           	xchgl	%ebx, %eax
    209f: 01 72 1b                     	addl	%esi, 0x1b(%edx)
    20a2: 23 07                        	andl	(%edi), %eax
    20a4: 93                           	xchgl	%ebx, %eax
    20a5: 01 72 1b                     	addl	%esi, 0x1b(%edx)
    20a8: 23 08                        	andl	(%eax), %ecx
    20aa: 93                           	xchgl	%ebx, %eax
    20ab: 01 72 1b                     	addl	%esi, 0x1b(%edx)
    20ae: 23 09                        	andl	(%ecx), %ecx
    20b0: 93                           	xchgl	%ebx, %eax
    20b1: 01 72 1b                     	addl	%esi, 0x1b(%edx)
    20b4: 23 0a                        	andl	(%edx), %ecx
    20b6: 93                           	xchgl	%ebx, %eax
    20b7: 01 72 1b                     	addl	%esi, 0x1b(%edx)
    20ba: 23 0b                        	andl	(%ebx), %ecx
    20bc: 93                           	xchgl	%ebx, %eax
    20bd: 01 72 1b                     	addl	%esi, 0x1b(%edx)
    20c0: 23 0c 93                     	andl	(%ebx,%edx,4), %ecx
    20c3: 01 72 1b                     	addl	%esi, 0x1b(%edx)
    20c6: 23 0d 93 01 72 1b            	andl	0x1b720193, %ecx
    20cc: 23 0e                        	andl	(%esi), %ecx
    20ce: 93                           	xchgl	%ebx, %eax
    20cf: 01 72 1b                     	addl	%esi, 0x1b(%edx)
    20d2: 23 0f                        	andl	(%edi), %ecx
    20d4: 93                           	xchgl	%ebx, %eax
    20d5: 01 72 1b                     	addl	%esi, 0x1b(%edx)
    20d8: 23 10                        	andl	(%eax), %edx
    20da: 93                           	xchgl	%ebx, %eax
    20db: 01 00                        	addl	%eax, (%eax)
    20dd: 01 04 04                     	addl	%eax, (%esp,%eax)
    20e0: cc                           	int3
    20e1: 11 80 12 03 11 0e            	adcl	%eax, 0xe110312(%eax)
    20e7: 9f                           	lahf
    20e8: 04 80                        	addb	$-0x80, %al
    20ea: 12 84 12 03 11 0d 9f         	adcb	-0x60f2eefd(%edx,%edx), %al
    20f1: 04 84                        	addb	$-0x7c, %al
    20f3: 12 88 12 03 11 0c            	adcb	0xc110312(%eax), %cl
    20f9: 9f                           	lahf
    20fa: 04 88                        	addb	$-0x78, %al
    20fc: 12 8c 12 03 11 0b 9f         	adcb	-0x60f4eefd(%edx,%edx), %cl
    2103: 04 8c                        	addb	$-0x74, %al
    2105: 12 a8 12 03 11 0a            	adcb	0xa110312(%eax), %ch
    210b: 9f                           	lahf
    210c: 04 a8                        	addb	$-0x58, %al
    210e: 12 b2 12 03 11 08            	adcb	0x8110312(%edx), %dh
    2114: 9f                           	lahf
    2115: 04 b2                        	addb	$-0x4e, %al
    2117: 12 b6 12 03 11 09            	adcb	0x9110312(%esi), %dh
    211d: 9f                           	lahf
    211e: 04 b6                        	addb	$-0x4a, %al
    2120: 12 c2                        	adcb	%dl, %al
    2122: 12 03                        	adcb	(%ebx), %al
    2124: 11 0f                        	adcl	%ecx, (%edi)
    2126: 9f                           	lahf
    2127: 04 c2                        	addb	$-0x3e, %al
    2129: 12 c6                        	adcb	%dh, %al
    212b: 12 03                        	adcb	(%ebx), %al
    212d: 11 07                        	adcl	%eax, (%edi)
    212f: 9f                           	lahf
    2130: 04 c6                        	addb	$-0x3a, %al
    2132: 12 ca                        	adcb	%dl, %cl
    2134: 12 03                        	adcb	(%ebx), %al
    2136: 11 06                        	adcl	%eax, (%esi)
    2138: 9f                           	lahf
    2139: 04 ca                        	addb	$-0x36, %al
    213b: 12 ce                        	adcb	%dh, %cl
    213d: 12 03                        	adcb	(%ebx), %al
    213f: 11 05 9f 04 ce 12            	adcl	%eax, 0x12ce049f
    2145: d2 12                        	rclb	%cl, (%edx)
    2147: 03 11                        	addl	(%ecx), %edx
    2149: 04 9f                        	addb	$-0x61, %al
    214b: 04 d2                        	addb	$-0x2e, %al
    214d: 12 d6                        	adcb	%dh, %dl
    214f: 12 03                        	adcb	(%ebx), %al
    2151: 11 03                        	adcl	%eax, (%ebx)
    2153: 9f                           	lahf
    2154: 04 d6                        	addb	$-0x2a, %al
    2156: 12 da                        	adcb	%dl, %bl
    2158: 12 03                        	adcb	(%ebx), %al
    215a: 11 02                        	adcl	%eax, (%edx)
    215c: 9f                           	lahf
    215d: 04 da                        	addb	$-0x26, %al
    215f: 12 de                        	adcb	%dh, %bl
    2161: 12 03                        	adcb	(%ebx), %al
    2163: 11 01                        	adcl	%eax, (%ecx)
    2165: 9f                           	lahf
    2166: 04 de                        	addb	$-0x22, %al
    2168: 12 90 13 03 11 7f            	adcb	0x7f110313(%eax), %dl
    216e: 9f                           	lahf
    216f: 00 01                        	addb	%al, (%ecx)
    2171: 04 04                        	addb	$0x4, %al
    2173: de 12                        	ficoms	(%edx)
    2175: f4                           	hlt
    2176: 12 03                        	adcb	(%ebx), %al
    2178: 10 30                        	adcb	%dh, (%eax)
    217a: 9f                           	lahf
    217b: 04 f4                        	addb	$-0xc, %al
    217d: 12 90 13 03 10 78            	adcb	0x78100313(%eax), %dl
    2183: 9f                           	lahf
    2184: 00 01                        	addb	%al, (%ecx)
    2186: 04 04                        	addb	$0x4, %al
    2188: de 12                        	ficoms	(%edx)
    218a: f4                           	hlt
    218b: 12 03                        	adcb	(%ebx), %al
    218d: 11 00                        	adcl	%eax, (%eax)
    218f: 9f                           	lahf
    2190: 04 f4                        	addb	$-0xc, %al
    2192: 12 8e 13 03 11 01            	adcb	0x1110313(%esi), %cl
    2198: 9f                           	lahf
    2199: 04 8e                        	addb	$-0x72, %al
    219b: 13 90 13 03 11 02            	adcl	0x2110313(%eax), %edx
    21a1: 9f                           	lahf
    21a2: 00 01                        	addb	%al, (%ecx)
    21a4: 04 04                        	addb	$0x4, %al
    21a6: 90                           	nop
    21a7: 13 a2 13 09 78 00            	adcl	0x780913(%edx), %esp
    21ad: 11 01                        	adcl	%eax, (%ecx)
    21af: 72 1b                        	jb	0x21cc <$d+0x21cc>
    21b1: 22 1c 9f                     	andb	(%edi,%ebx,4), %bl
    21b4: 04 a2                        	addb	$-0x5e, %al
    21b6: 13 a8 13 0c 78 00            	adcl	0x780c13(%eax), %ebp
    21bc: 11 01                        	adcl	%eax, (%ecx)
    21be: 72 1b                        	jb	0x21db <$d+0x21db>
    21c0: 22 1c 11                     	andb	(%ecx,%edx), %bl
    21c3: 01 22                        	addl	%esp, (%edx)
    21c5: 9f                           	lahf
    21c6: 00 01                        	addb	%al, (%ecx)
    21c8: 04 04                        	addb	$0x4, %al
    21ca: ce                           	into
    21cb: 13 de                        	adcl	%esi, %ebx
    21cd: 13 01                        	adcl	(%ecx), %eax
    21cf: 5a                           	popl	%edx
    21d0: 00 01                        	addb	%al, (%ecx)
    21d2: 04 04                        	addb	$0x4, %al
    21d4: a6                           	cmpsb	%es:(%edi), (%esi)
    21d5: 14 b6                        	adcb	$-0x4a, %al
    21d7: 14 01                        	adcb	$0x1, %al
    21d9: 5a                           	popl	%edx
    21da: 00                           	<unknown>

Disassembly of section .debug_abbrev:

00000000 <$d>:
       0: 01 11                        	addl	%edx, (%ecx)
       2: 01 25 25 13 05 03            	addl	%esp, 0x3051325
       8: 25 72 17 10 17               	andl	$0x17101772, %eax       # imm = 0x17101772
       d: 1b 25 11 01 55 23            	sbbl	0x23550111, %esp
      13: 73 17                        	jae	0x2c <$d+0x2c>
      15: 74 17                        	je	0x2e <$d+0x2e>
      17: 8c 01                        	movw	%es, (%ecx)
      19: 17                           	popl	%ss
      1a: 00 00                        	addb	%al, (%eax)
      1c: 02 34 00                     	addb	(%eax,%eax), %dh
      1f: 49                           	decl	%ecx
      20: 13 3a                        	adcl	(%edx), %edi
      22: 0b 3b                        	orl	(%ebx), %edi
      24: 0b 00                        	orl	(%eax), %eax
      26: 00 03                        	addb	%al, (%ebx)
      28: 01 01                        	addl	%eax, (%ecx)
      2a: 49                           	decl	%ecx
      2b: 13 00                        	adcl	(%eax), %eax
      2d: 00 04 21                     	addb	%al, (%ecx,%eiz)
      30: 00 49 13                     	addb	%cl, 0x13(%ecx)
      33: 37                           	aaa
      34: 0b 00                        	orl	(%eax), %eax
      36: 00 05 24 00 03 25            	addb	%al, 0x25030024
      3c: 3e 0b 0b                     	orl	%ds:(%ebx), %ecx
      3f: 0b 00                        	orl	(%eax), %eax
      41: 00 06                        	addb	%al, (%esi)
      43: 24 00                        	andb	$0x0, %al
      45: 03 25 0b 0b 3e 0b            	addl	0xb3e0b0b, %esp
      4b: 00 00                        	addb	%al, (%eax)
      4d: 07                           	popl	%es
      4e: 34 00                        	xorb	$0x0, %al
      50: 49                           	decl	%ecx
      51: 13 3a                        	adcl	(%edx), %edi
      53: 0b 3b                        	orl	(%ebx), %edi
      55: 0b 02                        	orl	(%edx), %eax
      57: 18 00                        	sbbb	%al, (%eax)
      59: 00 08                        	addb	%cl, (%eax)
      5b: 2e 01 03                     	addl	%eax, %cs:(%ebx)
      5e: 25 3a 0b 3b 0b               	andl	$0xb3b0b3a, %eax        # imm = 0xB3B0B3A
      63: 27                           	daa
      64: 19 3f                        	sbbl	%edi, (%edi)
      66: 19 20                        	sbbl	%esp, (%eax)
      68: 21 01                        	andl	%eax, (%ecx)
      6a: 00 00                        	addb	%al, (%eax)
      6c: 09 05 00 03 25 3a            	orl	%eax, 0x3a250300
      72: 0b 3b                        	orl	(%ebx), %edi
      74: 0b 49 13                     	orl	0x13(%ecx), %ecx
      77: 00 00                        	addb	%al, (%eax)
      79: 0a 34 00                     	orb	(%eax,%eax), %dh
      7c: 03 25 3a 0b 3b 0b            	addl	0xb3b0b3a, %esp
      82: 49                           	decl	%ecx
      83: 13 00                        	adcl	(%eax), %eax
      85: 00 0b                        	addb	%cl, (%ebx)
      87: 13 01                        	adcl	(%ecx), %eax
      89: 03 25 0b 0b 3a 0b            	addl	0xb3a0b0b, %esp
      8f: 3b 0b                        	cmpl	(%ebx), %ecx
      91: 00 00                        	addb	%al, (%eax)
      93: 0c 0d                        	orb	$0xd, %al
      95: 00 03                        	addb	%al, (%ebx)
      97: 25 49 13 3a 0b               	andl	$0xb3a1349, %eax        # imm = 0xB3A1349
      9c: 3b 0b                        	cmpl	(%ebx), %ecx
      9e: 38 0b                        	cmpb	%cl, (%ebx)
      a0: 00 00                        	addb	%al, (%eax)
      a2: 0d 2e 01 11 1b               	orl	$0x1b11012e, %eax       # imm = 0x1B11012E
      a7: 12 06                        	adcb	(%esi), %al
      a9: 40                           	incl	%eax
      aa: 18 7a 19                     	sbbb	%bh, 0x19(%edx)
      ad: 31 13                        	xorl	%edx, (%ebx)
      af: 00 00                        	addb	%al, (%eax)
      b1: 0e                           	pushl	%cs
      b2: 05 00 02 22 31               	addl	$0x31220200, %eax       # imm = 0x31220200
      b7: 13 00                        	adcl	(%eax), %eax
      b9: 00 0f                        	addb	%cl, (%edi)
      bb: 0b 01                        	orl	(%ecx), %eax
      bd: 11 1b                        	adcl	%ebx, (%ebx)
      bf: 12 06                        	adcb	(%esi), %al
      c1: 00 00                        	addb	%al, (%eax)
      c3: 10 34 00                     	adcb	%dh, (%eax,%eax)
      c6: 02 22                        	addb	(%edx), %ah
      c8: 31 13                        	xorl	%edx, (%ebx)
      ca: 00 00                        	addb	%al, (%eax)
      cc: 11 1d 01 31 13 11            	adcl	%ebx, 0x11133101
      d2: 1b 12                        	sbbl	(%edx), %edx
      d4: 06                           	pushl	%es
      d5: 58                           	popl	%eax
      d6: 0b 59 0b                     	orl	0xb(%ecx), %ebx
      d9: 57                           	pushl	%edi
      da: 0b 00                        	orl	(%eax), %eax
      dc: 00 12                        	addb	%dl, (%edx)
      de: 05 00 02 18 31               	addl	$0x31180200, %eax       # imm = 0x31180200
      e3: 13 00                        	adcl	(%eax), %eax
      e5: 00 13                        	addb	%dl, (%ebx)
      e7: 48                           	decl	%eax
      e8: 00 7f 13                     	addb	%bh, 0x13(%edi)
      eb: 7d 1b                        	jge	0x108 <$d+0x108>
      ed: 00 00                        	addb	%al, (%eax)
      ef: 14 2e                        	adcb	$0x2e, %al
      f1: 01 11                        	addl	%edx, (%ecx)
      f3: 1b 12                        	sbbl	(%edx), %edx
      f5: 06                           	pushl	%es
      f6: 40                           	incl	%eax
      f7: 18 7a 19                     	sbbb	%bh, 0x19(%edx)
      fa: 03 25 3a 0b 3b 0b            	addl	0xb3b0b3a, %esp
     100: 27                           	daa
     101: 19 49 13                     	sbbl	%ecx, 0x13(%ecx)
     104: 3f                           	aas
     105: 19 00                        	sbbl	%eax, (%eax)
     107: 00 15 05 00 02 22            	addb	%dl, 0x22020005
     10d: 03 25 3a 0b 3b 0b            	addl	0xb3b0b3a, %esp
     113: 49                           	decl	%ecx
     114: 13 00                        	adcl	(%eax), %eax
     116: 00 16                        	addb	%dl, (%esi)
     118: 34 00                        	xorb	$0x0, %al
     11a: 02 22                        	addb	(%edx), %ah
     11c: 03 25 3a 0b 3b 0b            	addl	0xb3b0b3a, %esp
     122: 49                           	decl	%ecx
     123: 13 00                        	adcl	(%eax), %eax
     125: 00 17                        	addb	%dl, (%edi)
     127: 0b 01                        	orl	(%ecx), %eax
     129: 55                           	pushl	%ebp
     12a: 23 00                        	andl	(%eax), %eax
     12c: 00 18                        	addb	%bl, (%eax)
     12e: 05 00 1c 0f 31               	addl	$0x310f1c00, %eax       # imm = 0x310F1C00
     133: 13 00                        	adcl	(%eax), %eax
     135: 00 19                        	addb	%bl, (%ecx)
     137: 34 00                        	xorb	$0x0, %al
     139: 1c 0d                        	sbbb	$0xd, %al
     13b: 31 13                        	xorl	%edx, (%ebx)
     13d: 00 00                        	addb	%al, (%eax)
     13f: 1a 34 00                     	sbbb	(%eax,%eax), %dh
     142: 31 13                        	xorl	%edx, (%ebx)
     144: 00 00                        	addb	%al, (%eax)
     146: 1b 48 00                     	sbbl	(%eax), %ecx
     149: 7f 13                        	jg	0x15e <$d+0x15e>
     14b: 82 01 19                     	addb	$0x19, (%ecx)
     14e: 81 01 1b 00 00 1c            	addl	$0x1c00001b, (%ecx)     # imm = 0x1C00001B
     154: 0b 01                        	orl	(%ecx), %eax
     156: 00 00                        	addb	%al, (%eax)
     158: 1d 0f 00 49 13               	sbbl	$0x1349000f, %eax       # imm = 0x1349000F
     15d: 00 00                        	addb	%al, (%eax)
     15f: 1e                           	pushl	%ds
     160: 26 00 49 13                  	addb	%cl, %es:0x13(%ecx)
     164: 00 00                        	addb	%al, (%eax)
     166: 1f                           	popl	%ds
     167: 34 00                        	xorb	$0x0, %al
     169: 02 18                        	addb	(%eax), %bl
     16b: 31 13                        	xorl	%edx, (%ebx)
     16d: 00 00                        	addb	%al, (%eax)
     16f: 20 2e                        	andb	%ch, (%esi)
     171: 00 11                        	addb	%dl, (%ecx)
     173: 1b 12                        	sbbl	(%edx), %edx
     175: 06                           	pushl	%es
     176: 40                           	incl	%eax
     177: 18 7a 19                     	sbbb	%bh, 0x19(%edx)
     17a: 03 25 3a 0b 3b 0b            	addl	0xb3b0b3a, %esp
     180: 27                           	daa
     181: 19 3f                        	sbbl	%edi, (%edi)
     183: 19 00                        	sbbl	%eax, (%eax)
     185: 00 21                        	addb	%ah, (%ecx)
     187: 2e 01 11                     	addl	%edx, %cs:(%ecx)
     18a: 1b 12                        	sbbl	(%edx), %edx
     18c: 06                           	pushl	%es
     18d: 40                           	incl	%eax
     18e: 18 7a 19                     	sbbb	%bh, 0x19(%edx)
     191: 03 25 3a 0b 3b 0b            	addl	0xb3b0b3a, %esp
     197: 27                           	daa
     198: 19 3f                        	sbbl	%edi, (%edi)
     19a: 19 00                        	sbbl	%eax, (%eax)
     19c: 00 00                        	addb	%al, (%eax)

Disassembly of section .debug_info:

00000000 <$d>:
       0: 66 09 00                     	orw	%ax, (%eax)
       3: 00 05 00 01 04 00            	addb	%al, 0x40100
       9: 00 00                        	addb	%al, (%eax)
       b: 00 01                        	addb	%al, (%ecx)
       d: 00 1d 00 01 08 00            	addb	%bl, 0x80100
      13: 00 00                        	addb	%al, (%eax)
      15: 00 00                        	addb	%al, (%eax)
      17: 00 00                        	addb	%al, (%eax)
      19: 02 00                        	addb	(%eax), %al
      1b: 00 00                        	addb	%al, (%eax)
      1d: 00 07                        	addb	%al, (%edi)
      1f: 08 00                        	orb	%al, (%eax)
      21: 00 00                        	addb	%al, (%eax)
      23: 0c 00                        	orb	$0x0, %al
      25: 00 00                        	addb	%al, (%eax)
      27: 0c 00                        	orb	$0x0, %al
      29: 00 00                        	addb	%al, (%eax)
      2b: 02 32                        	addb	(%edx), %dh
      2d: 00 00                        	addb	%al, (%eax)
      2f: 00 00                        	addb	%al, (%eax)
      31: 18 03                        	sbbb	%al, (%ebx)
      33: 3e 00 00                     	addb	%al, %ds:(%eax)
      36: 00 04 42                     	addb	%al, (%edx,%eax,2)
      39: 00 00                        	addb	%al, (%eax)
      3b: 00 03                        	addb	%al, (%ebx)
      3d: 00 05 03 08 01 06            	addb	%al, 0x6010803
      43: 04 08                        	addb	$0x8, %al
      45: 07                           	popl	%es
      46: 07                           	popl	%es
      47: 50                           	pushl	%eax
      48: 00 00                        	addb	%al, (%eax)
      4a: 00 00                        	addb	%al, (%eax)
      4c: 1e                           	pushl	%ds
      4d: 02 a1 00 03 3e 00            	addb	0x3e0300(%ecx), %ah
      53: 00 00                        	addb	%al, (%eax)
      55: 04 42                        	addb	$0x42, %al
      57: 00 00                        	addb	%al, (%eax)
      59: 00 11                        	addb	%dl, (%ecx)
      5b: 00 02                        	addb	%al, (%edx)
      5d: 63 00                        	arpl	%ax, (%eax)
      5f: 00 00                        	addb	%al, (%eax)
      61: 00 20                        	addb	%ah, (%eax)
      63: 03 3e                        	addl	(%esi), %edi
      65: 00 00                        	addb	%al, (%eax)
      67: 00 04 42                     	addb	%al, (%edx,%eax,2)
      6a: 00 00                        	addb	%al, (%eax)
      6c: 00 09                        	addb	%cl, (%ecx)
      6e: 00 02                        	addb	%al, (%edx)
      70: 76 00                        	jbe	0x72 <$d+0x72>
      72: 00 00                        	addb	%al, (%eax)
      74: 00 22                        	addb	%ah, (%edx)
      76: 03 3e                        	addl	(%esi), %edi
      78: 00 00                        	addb	%al, (%eax)
      7a: 00 04 42                     	addb	%al, (%edx,%eax,2)
      7d: 00 00                        	addb	%al, (%eax)
      7f: 00 0a                        	addb	%cl, (%edx)
      81: 00 02                        	addb	%al, (%edx)
      83: 32 00                        	xorb	(%eax), %al
      85: 00 00                        	addb	%al, (%eax)
      87: 00 24 02                     	addb	%ah, (%edx,%eax)
      8a: 90                           	nop
      8b: 00 00                        	addb	%al, (%eax)
      8d: 00 00                        	addb	%al, (%eax)
      8f: 26 03 3e                     	addl	%es:(%esi), %edi
      92: 00 00                        	addb	%al, (%eax)
      94: 00 04 42                     	addb	%al, (%edx,%eax,2)
      97: 00 00                        	addb	%al, (%eax)
      99: 00 02                        	addb	%al, (%edx)
      9b: 00 07                        	addb	%al, (%edi)
      9d: a6                           	cmpsb	%es:(%edi), (%esi)
      9e: 00 00                        	addb	%al, (%eax)
      a0: 00 00                        	addb	%al, (%eax)
      a2: 37                           	aaa
      a3: 02 a1 01 03 3e 00            	addb	0x3e0301(%ecx), %ah
      a9: 00 00                        	addb	%al, (%eax)
      ab: 04 42                        	addb	$0x42, %al
      ad: 00 00                        	addb	%al, (%eax)
      af: 00 1a                        	addb	%bl, (%edx)
      b1: 00 02                        	addb	%al, (%edx)
      b3: b9 00 00 00 00               	movl	$0x0, %ecx
      b8: 39 03                        	cmpl	%eax, (%ebx)
      ba: 3e 00 00                     	addb	%al, %ds:(%eax)
      bd: 00 04 42                     	addb	%al, (%edx,%eax,2)
      c0: 00 00                        	addb	%al, (%eax)
      c2: 00 0b                        	addb	%cl, (%ebx)
      c4: 00 07                        	addb	%al, (%edi)
      c6: cf                           	iretl
      c7: 00 00                        	addb	%al, (%eax)
      c9: 00 00                        	addb	%al, (%eax)
      cb: 58                           	popl	%eax
      cc: 02 a1 02 03 3e 00            	addb	0x3e0302(%ecx), %ah
      d2: 00 00                        	addb	%al, (%eax)
      d4: 04 42                        	addb	$0x42, %al
      d6: 00 00                        	addb	%al, (%eax)
      d8: 00 14 00                     	addb	%dl, (%eax,%eax)
      db: 07                           	popl	%es
      dc: e5 00                        	inl	$0x0, %eax
      de: 00 00                        	addb	%al, (%eax)
      e0: 00 5a 02                     	addb	%bl, 0x2(%edx)
      e3: a1 03 03 3e 00               	movl	0x3e0303, %eax
      e8: 00 00                        	addb	%al, (%eax)
      ea: 04 42                        	addb	$0x42, %al
      ec: 00 00                        	addb	%al, (%eax)
      ee: 00 10                        	addb	%dl, (%eax)
      f0: 00 08                        	addb	%cl, (%eax)
      f2: 05 00 40 09 06               	addl	$0x6094000, %eax        # imm = 0x6094000
      f7: 00 40 3e                     	addb	%al, 0x3e(%eax)
      fa: 00 00                        	addb	%al, (%eax)
      fc: 00 0a                        	addb	%cl, (%edx)
      fe: 07                           	popl	%es
      ff: 00 42 06                     	addb	%al, 0x6(%edx)
     102: 01 00                        	addl	%eax, (%eax)
     104: 00 00                        	addb	%al, (%eax)
     106: 0b 0b                        	orl	(%ebx), %ecx
     108: 08 01                        	orb	%al, (%ecx)
     10a: 03 0c 08                     	addl	(%eax,%ecx), %ecx
     10d: 1e                           	pushl	%ds
     10e: 01 00                        	addl	%eax, (%eax)
     110: 00 01                        	addb	%al, (%ecx)
     112: 04 00                        	addb	$0x0, %al
     114: 0c 0a                        	orb	$0xa, %al
     116: 1e                           	pushl	%ds
     117: 01 00                        	addl	%eax, (%eax)
     119: 00 01                        	addb	%al, (%ecx)
     11b: 05 04 00 05 09               	addl	$0x9050004, %eax        # imm = 0x9050004
     120: 05 04 0d 04 32               	addl	$0x32040d04, %eax       # imm = 0x32040D04
     125: 00 00                        	addb	%al, (%eax)
     127: 00 01                        	addb	%al, (%ecx)
     129: 52                           	pushl	%edx
     12a: bb 07 00 00 0e               	movl	$0xe000007, %ebx        # imm = 0xE000007
     12f: 00 bf 07 00 00 0f            	addb	%bh, 0xf000007(%edi)
     135: 05 28 00 00 00               	addl	$0x28, %eax
     13a: 10 01                        	adcb	%al, (%ecx)
     13c: c8 07 00 00                  	enter	$0x7, $0x0
     140: 11 f1                        	adcl	%esi, %ecx
     142: 00 00                        	addb	%al, (%eax)
     144: 00 06                        	addb	%al, (%esi)
     146: 10 00                        	adcb	%al, (%eax)
     148: 00 00                        	addb	%al, (%eax)
     14a: 00 0b                        	addb	%cl, (%ebx)
     14c: 09 12                        	orl	%edx, (%edx)
     14e: 01 5a f5                     	addl	%ebx, -0xb(%edx)
     151: 00 00                        	addb	%al, (%eax)
     153: 00 00                        	addb	%al, (%eax)
     155: 00 13                        	addb	%dl, (%ebx)
     157: 5d                           	popl	%ebp
     158: 01 00                        	addl	%eax, (%eax)
     15a: 00 07                        	addb	%al, (%edi)
     15c: 00 14 10                     	addb	%dl, (%eax,%edx)
     15f: 82 08 00                     	orb	$0x0, (%eax)
     162: 00 01                        	addb	%al, (%ecx)
     164: 52                           	pushl	%edx
     165: 17                           	popl	%ss
     166: 00 1c 06                     	addb	%bl, (%esi,%eax)
     169: 01 00                        	addl	%eax, (%eax)
     16b: 00 15 07 1a 00 1c            	addb	%dl, 0x1c001a07
     171: 1e                           	pushl	%ds
     172: 01 00                        	addl	%eax, (%eax)
     174: 00 15 08 1b 00 1c            	addb	%dl, 0x1c001b08
     17a: 1e                           	pushl	%ds
     17b: 01 00                        	addl	%eax, (%eax)
     17d: 00 15 09 1c 00 1c            	addb	%dl, 0x1c001c09
     183: 1e                           	pushl	%ds
     184: 01 00                        	addl	%eax, (%eax)
     186: 00 15 0a 1d 00 1c            	addb	%dl, 0x1c001d0a
     18c: 1e                           	pushl	%ds
     18d: 01 00                        	addl	%eax, (%eax)
     18f: 00 15 0b 1e 00 1c            	addb	%dl, 0x1c001e0b
     195: 1e                           	pushl	%ds
     196: 01 00                        	addl	%eax, (%eax)
     198: 00 15 0c 1f 00 1d            	addb	%dl, 0x1d001f0c
     19e: 1e                           	pushl	%ds
     19f: 01 00                        	addl	%eax, (%eax)
     1a1: 00 15 0d 20 00 1d            	addb	%dl, 0x1d00200d
     1a7: 1e                           	pushl	%ds
     1a8: 01 00                        	addl	%eax, (%eax)
     1aa: 00 15 0e 21 00 1d            	addb	%dl, 0x1d00210e
     1b0: 1e                           	pushl	%ds
     1b1: 01 00                        	addl	%eax, (%eax)
     1b3: 00 16                        	addb	%dl, (%esi)
     1b5: 2e 22 00                     	andb	%cs:(%eax), %al
     1b8: 2f                           	das
     1b9: 1e                           	pushl	%ds
     1ba: 01 00                        	addl	%eax, (%eax)
     1bc: 00 16                        	addb	%dl, (%esi)
     1be: 2f                           	das
     1bf: 23 00                        	andl	(%eax), %eax
     1c1: 2e 1e                        	pushl	%ds
     1c3: 01 00                        	addl	%eax, (%eax)
     1c5: 00 16                        	addb	%dl, (%esi)
     1c7: 30 24 00                     	xorb	%ah, (%eax,%eax)
     1ca: 2d 1e 01 00 00               	subl	$0x11e, %eax            # imm = 0x11E
     1cf: 16                           	pushl	%ss
     1d0: 31 25 00 2c 1e 01            	xorl	%esp, 0x11e2c00
     1d6: 00 00                        	addb	%al, (%eax)
     1d8: 16                           	pushl	%ss
     1d9: 32 26                        	xorb	(%esi), %ah
     1db: 00 2b                        	addb	%ch, (%ebx)
     1dd: 1e                           	pushl	%ds
     1de: 01 00                        	addl	%eax, (%eax)
     1e0: 00 16                        	addb	%dl, (%esi)
     1e2: 33 27                        	xorl	(%edi), %esp
     1e4: 00 2a                        	addb	%ch, (%edx)
     1e6: 1e                           	pushl	%ds
     1e7: 01 00                        	addl	%eax, (%eax)
     1e9: 00 16                        	addb	%dl, (%esi)
     1eb: 34 28                        	xorb	$0x28, %al
     1ed: 00 29                        	addb	%ch, (%ecx)
     1ef: 1e                           	pushl	%ds
     1f0: 01 00                        	addl	%eax, (%eax)
     1f2: 00 16                        	addb	%dl, (%esi)
     1f4: 35 29 00 28 1e               	xorl	$0x1e280029, %eax       # imm = 0x1E280029
     1f9: 01 00                        	addl	%eax, (%eax)
     1fb: 00 11                        	addb	%dl, (%ecx)
     1fd: bb 07 00 00 11               	movl	$0x11000007, %ebx       # imm = 0x11000007
     202: 1a 00                        	sbbb	(%eax), %al
     204: 00 00                        	addb	%al, (%eax)
     206: 00 1e                        	addb	%bl, (%esi)
     208: 05 11 f1 00 00               	addl	$0xf111, %eax           # imm = 0xF111
     20d: 00 11                        	addb	%dl, (%ecx)
     20f: 10 00                        	adcb	%al, (%eax)
     211: 00 00                        	addb	%al, (%eax)
     213: 00 0b                        	addb	%cl, (%ebx)
     215: 09 12                        	orl	%edx, (%edx)
     217: 01 5a f5                     	addl	%ebx, -0xb(%edx)
     21a: 00 00                        	addb	%al, (%eax)
     21c: 00 00                        	addb	%al, (%eax)
     21e: 00 11                        	addb	%dl, (%ecx)
     220: 83 08 00                     	orl	$0x0, (%eax)
     223: 00 12                        	addb	%dl, (%edx)
     225: e6 00                        	outb	%al, $0x0
     227: 00 00                        	addb	%al, (%eax)
     229: 00 1f                        	addb	%bl, (%edi)
     22b: 05 0e 10 87 08               	addl	$0x887100e, %eax        # imm = 0x887100E
     230: 00 00                        	addb	%al, (%eax)
     232: 10 0f                        	adcb	%cl, (%edi)
     234: 8f 08 00 00                  	<unknown>
     238: 17                           	popl	%ss
     239: 01 10                        	addl	%edx, (%eax)
     23b: 11 a0 08 00 00 00            	adcl	%esp, 0x8(%eax)
     241: 11 bb 07 00 00 13            	adcl	%edi, 0x13000007(%ebx)
     247: 2e 00 00                     	addb	%al, %cs:(%eax)
     24a: 00 00                        	addb	%al, (%eax)
     24c: 18 05 0f 13 2e 00            	sbbb	%al, 0x2e130f
     252: 00 00                        	addb	%al, (%eax)
     254: 10 13                        	adcb	%dl, (%ebx)
     256: c8 07 00 00                  	enter	$0x7, $0x0
     25a: 11 f1                        	adcl	%esi, %ecx
     25c: 00 00                        	addb	%al, (%eax)
     25e: 00 13                        	addb	%dl, (%ebx)
     260: 2e 00 00                     	addb	%al, %cs:(%eax)
     263: 00 00                        	addb	%al, (%eax)
     265: 0b 09                        	orl	(%ecx), %ecx
     267: 0e                           	pushl	%cs
     268: 12 f5                        	adcb	%ch, %dh
     26a: 00 00                        	addb	%al, (%eax)
     26c: 00 00                        	addb	%al, (%eax)
     26e: 00 00                        	addb	%al, (%eax)
     270: 11 bb 07 00 00 14            	adcl	%edi, 0x14000007(%ebx)
     276: 18 00                        	sbbb	%al, (%eax)
     278: 00 00                        	addb	%al, (%eax)
     27a: 00 19                        	addb	%bl, (%ecx)
     27c: 05 0f 14 18 00               	addl	$0x18140f, %eax         # imm = 0x18140F
     281: 00 00                        	addb	%al, (%eax)
     283: 10 14 c8                     	adcb	%dl, (%eax,%ecx,8)
     286: 07                           	popl	%es
     287: 00 00                        	addb	%al, (%eax)
     289: 11 f1                        	adcl	%esi, %ecx
     28b: 00 00                        	addb	%al, (%eax)
     28d: 00 14 10                     	addb	%dl, (%eax,%edx)
     290: 00 00                        	addb	%al, (%eax)
     292: 00 00                        	addb	%al, (%eax)
     294: 0b 09                        	orl	(%ecx), %ecx
     296: 12 01                        	adcb	(%ecx), %al
     298: 5a                           	popl	%edx
     299: f5                           	cmc
     29a: 00 00                        	addb	%al, (%eax)
     29c: 00 00                        	addb	%al, (%eax)
     29e: 00 00                        	addb	%al, (%eax)
     2a0: 00 11                        	addb	%dl, (%ecx)
     2a2: bb 07 00 00 15               	movl	$0x15000007, %ebx       # imm = 0x15000007
     2a7: a0 00 00 00 00               	movb	0x0, %al
     2ac: 20 05 0f 15 a0 00            	andb	%al, 0xa0150f
     2b2: 00 00                        	addb	%al, (%eax)
     2b4: 10 15 c8 07 00 00            	adcb	%dl, 0x7c8
     2ba: 11 f1                        	adcl	%esi, %ecx
     2bc: 00 00                        	addb	%al, (%eax)
     2be: 00 15 a0 00 00 00            	addb	%dl, 0xa0
     2c4: 00 0b                        	addb	%cl, (%ebx)
     2c6: 09 0e                        	orl	%ecx, (%esi)
     2c8: 16                           	pushl	%ss
     2c9: f5                           	cmc
     2ca: 00 00                        	addb	%al, (%eax)
     2cc: 00 00                        	addb	%al, (%eax)
     2ce: 00 00                        	addb	%al, (%eax)
     2d0: 11 83 08 00 00 16            	adcl	%eax, 0x16000008(%ebx)
     2d6: e8 00 00 00 00               	calll	0x2db <$d+0x2db>
     2db: 21 05 0e 17 87 08            	andl	%eax, 0x887170e
     2e1: 00 00                        	addb	%al, (%eax)
     2e3: 10 18                        	adcb	%bl, (%eax)
     2e5: 8f 08 00 00                  	<unknown>
     2e9: 17                           	popl	%ss
     2ea: 02 10                        	addb	(%eax), %dl
     2ec: 19 a0 08 00 00 00            	sbbl	%esp, 0x8(%eax)
     2f2: 11 bb 07 00 00 17            	adcl	%edi, 0x17000007(%ebx)
     2f8: 30 00                        	xorb	%al, (%eax)
     2fa: 00 00                        	addb	%al, (%eax)
     2fc: 00 18                        	addb	%bl, (%eax)
     2fe: 05 0f 17 30 00               	addl	$0x30170f, %eax         # imm = 0x30170F
     303: 00 00                        	addb	%al, (%eax)
     305: 10 1b                        	adcb	%bl, (%ebx)
     307: c8 07 00 00                  	enter	$0x7, $0x0
     30b: 11 f1                        	adcl	%esi, %ecx
     30d: 00 00                        	addb	%al, (%eax)
     30f: 00 17                        	addb	%dl, (%edi)
     311: 30 00                        	xorb	%al, (%eax)
     313: 00 00                        	addb	%al, (%eax)
     315: 00 0b                        	addb	%cl, (%ebx)
     317: 09 0e                        	orl	%ecx, (%esi)
     319: 1a f5                        	sbbb	%ch, %dh
     31b: 00 00                        	addb	%al, (%eax)
     31d: 00 00                        	addb	%al, (%eax)
     31f: 00 00                        	addb	%al, (%eax)
     321: 11 bb 07 00 00 18            	adcl	%edi, 0x18000007(%ebx)
     327: 18 00                        	sbbb	%al, (%eax)
     329: 00 00                        	addb	%al, (%eax)
     32b: 00 19                        	addb	%bl, (%ecx)
     32d: 05 0f 18 18 00               	addl	$0x18180f, %eax         # imm = 0x18180F
     332: 00 00                        	addb	%al, (%eax)
     334: 10 1c c8                     	adcb	%bl, (%eax,%ecx,8)
     337: 07                           	popl	%es
     338: 00 00                        	addb	%al, (%eax)
     33a: 11 f1                        	adcl	%esi, %ecx
     33c: 00 00                        	addb	%al, (%eax)
     33e: 00 18                        	addb	%bl, (%eax)
     340: 10 00                        	adcb	%al, (%eax)
     342: 00 00                        	addb	%al, (%eax)
     344: 00 0b                        	addb	%cl, (%ebx)
     346: 09 12                        	orl	%edx, (%edx)
     348: 01 5a f5                     	addl	%ebx, -0xb(%edx)
     34b: 00 00                        	addb	%al, (%eax)
     34d: 00 00                        	addb	%al, (%eax)
     34f: 00 00                        	addb	%al, (%eax)
     351: 00 11                        	addb	%dl, (%ecx)
     353: bb 07 00 00 19               	movl	$0x19000007, %ebx       # imm = 0x19000007
     358: b4 00                        	movb	$0x0, %ah
     35a: 00 00                        	addb	%al, (%eax)
     35c: 00 22                        	addb	%ah, (%edx)
     35e: 05 0f 19 b4 00               	addl	$0xb4190f, %eax         # imm = 0xB4190F
     363: 00 00                        	addb	%al, (%eax)
     365: 10 1d c8 07 00 00            	adcb	%bl, 0x7c8
     36b: 11 f1                        	adcl	%esi, %ecx
     36d: 00 00                        	addb	%al, (%eax)
     36f: 00 19                        	addb	%bl, (%ecx)
     371: b4 00                        	movb	$0x0, %ah
     373: 00 00                        	addb	%al, (%eax)
     375: 00 0b                        	addb	%cl, (%ebx)
     377: 09 0e                        	orl	%ecx, (%esi)
     379: 1e                           	pushl	%ds
     37a: f5                           	cmc
     37b: 00 00                        	addb	%al, (%eax)
     37d: 00 00                        	addb	%al, (%eax)
     37f: 00 00                        	addb	%al, (%eax)
     381: 11 83 08 00 00 1a            	adcl	%eax, 0x1a000008(%ebx)
     387: e6 00                        	outb	%al, $0x0
     389: 00 00                        	addb	%al, (%eax)
     38b: 00 23                        	addb	%ah, (%ebx)
     38d: 05 0e 1f 87 08               	addl	$0x8871f0e, %eax        # imm = 0x8871F0E
     392: 00 00                        	addb	%al, (%eax)
     394: 10 20                        	adcb	%ah, (%eax)
     396: 8f 08 00 00                  	<unknown>
     39a: 17                           	popl	%ss
     39b: 03 10                        	addl	(%eax), %edx
     39d: 21 a0 08 00 00 00            	andl	%esp, 0x8(%eax)
     3a3: 11 bb 07 00 00 1b            	adcl	%edi, 0x1b000007(%ebx)
     3a9: 2e 00 00                     	addb	%al, %cs:(%eax)
     3ac: 00 00                        	addb	%al, (%eax)
     3ae: 18 05 0f 1b 2e 00            	sbbb	%al, 0x2e1b0f
     3b4: 00 00                        	addb	%al, (%eax)
     3b6: 10 23                        	adcb	%ah, (%ebx)
     3b8: c8 07 00 00                  	enter	$0x7, $0x0
     3bc: 11 f1                        	adcl	%esi, %ecx
     3be: 00 00                        	addb	%al, (%eax)
     3c0: 00 1b                        	addb	%bl, (%ebx)
     3c2: 2e 00 00                     	addb	%al, %cs:(%eax)
     3c5: 00 00                        	addb	%al, (%eax)
     3c7: 0b 09                        	orl	(%ecx), %ecx
     3c9: 0e                           	pushl	%cs
     3ca: 22 f5                        	andb	%ch, %dh
     3cc: 00 00                        	addb	%al, (%eax)
     3ce: 00 00                        	addb	%al, (%eax)
     3d0: 00 00                        	addb	%al, (%eax)
     3d2: 11 bb 07 00 00 1c            	adcl	%edi, 0x1c000007(%ebx)
     3d8: 18 00                        	sbbb	%al, (%eax)
     3da: 00 00                        	addb	%al, (%eax)
     3dc: 00 19                        	addb	%bl, (%ecx)
     3de: 05 0f 1c 18 00               	addl	$0x181c0f, %eax         # imm = 0x181C0F
     3e3: 00 00                        	addb	%al, (%eax)
     3e5: 10 24 c8                     	adcb	%ah, (%eax,%ecx,8)
     3e8: 07                           	popl	%es
     3e9: 00 00                        	addb	%al, (%eax)
     3eb: 11 f1                        	adcl	%esi, %ecx
     3ed: 00 00                        	addb	%al, (%eax)
     3ef: 00 1c 10                     	addb	%bl, (%eax,%edx)
     3f2: 00 00                        	addb	%al, (%eax)
     3f4: 00 00                        	addb	%al, (%eax)
     3f6: 0b 09                        	orl	(%ecx), %ecx
     3f8: 12 01                        	adcb	(%ecx), %al
     3fa: 5a                           	popl	%edx
     3fb: f5                           	cmc
     3fc: 00 00                        	addb	%al, (%eax)
     3fe: 00 00                        	addb	%al, (%eax)
     400: 00 00                        	addb	%al, (%eax)
     402: 00 11                        	addb	%dl, (%ecx)
     404: bb 07 00 00 1d               	movl	$0x1d000007, %ebx       # imm = 0x1D000007
     409: 28 00                        	subb	%al, (%eax)
     40b: 00 00                        	addb	%al, (%eax)
     40d: 00 24 05 0f 1d 28 00         	addb	%ah, 0x281d0f(,%eax)
     414: 00 00                        	addb	%al, (%eax)
     416: 10 25 c8 07 00 00            	adcb	%ah, 0x7c8
     41c: 11 f1                        	adcl	%esi, %ecx
     41e: 00 00                        	addb	%al, (%eax)
     420: 00 1d 28 00 00 00            	addb	%bl, 0x28
     426: 00 0b                        	addb	%cl, (%ebx)
     428: 09 0e                        	orl	%ecx, (%esi)
     42a: 26 f5                        	cmc
     42c: 00 00                        	addb	%al, (%eax)
     42e: 00 00                        	addb	%al, (%eax)
     430: 00 00                        	addb	%al, (%eax)
     432: 11 83 08 00 00 1e            	adcl	%eax, 0x1e000008(%ebx)
     438: e6 00                        	outb	%al, $0x0
     43a: 00 00                        	addb	%al, (%eax)
     43c: 00 25 05 0e 27 87            	addb	%ah, -0x78d8f1fb
     442: 08 00                        	orb	%al, (%eax)
     444: 00 10                        	addb	%dl, (%eax)
     446: 28 8f 08 00 00 17            	subb	%cl, 0x17000008(%edi)
     44c: 04 10                        	addb	$0x10, %al
     44e: 29 a0 08 00 00 00            	subl	%esp, 0x8(%eax)
     454: 11 bb 07 00 00 1f            	adcl	%edi, 0x1f000007(%ebx)
     45a: 2e 00 00                     	addb	%al, %cs:(%eax)
     45d: 00 00                        	addb	%al, (%eax)
     45f: 18 05 0f 1f 2e 00            	sbbb	%al, 0x2e1f0f
     465: 00 00                        	addb	%al, (%eax)
     467: 10 2b                        	adcb	%ch, (%ebx)
     469: c8 07 00 00                  	enter	$0x7, $0x0
     46d: 11 f1                        	adcl	%esi, %ecx
     46f: 00 00                        	addb	%al, (%eax)
     471: 00 1f                        	addb	%bl, (%edi)
     473: 2e 00 00                     	addb	%al, %cs:(%eax)
     476: 00 00                        	addb	%al, (%eax)
     478: 0b 09                        	orl	(%ecx), %ecx
     47a: 0e                           	pushl	%cs
     47b: 2a f5                        	subb	%ch, %dh
     47d: 00 00                        	addb	%al, (%eax)
     47f: 00 00                        	addb	%al, (%eax)
     481: 00 00                        	addb	%al, (%eax)
     483: 11 bb 07 00 00 20            	adcl	%edi, 0x20000007(%ebx)
     489: 18 00                        	sbbb	%al, (%eax)
     48b: 00 00                        	addb	%al, (%eax)
     48d: 00 19                        	addb	%bl, (%ecx)
     48f: 05 0f 20 18 00               	addl	$0x18200f, %eax         # imm = 0x18200F
     494: 00 00                        	addb	%al, (%eax)
     496: 10 2c c8                     	adcb	%ch, (%eax,%ecx,8)
     499: 07                           	popl	%es
     49a: 00 00                        	addb	%al, (%eax)
     49c: 11 f1                        	adcl	%esi, %ecx
     49e: 00 00                        	addb	%al, (%eax)
     4a0: 00 20                        	addb	%ah, (%eax)
     4a2: 10 00                        	adcb	%al, (%eax)
     4a4: 00 00                        	addb	%al, (%eax)
     4a6: 00 0b                        	addb	%cl, (%ebx)
     4a8: 09 12                        	orl	%edx, (%edx)
     4aa: 01 5a f5                     	addl	%ebx, -0xb(%edx)
     4ad: 00 00                        	addb	%al, (%eax)
     4af: 00 00                        	addb	%al, (%eax)
     4b1: 00 00                        	addb	%al, (%eax)
     4b3: 00 11                        	addb	%dl, (%ecx)
     4b5: bb 07 00 00 21               	movl	$0x21000007, %ebx       # imm = 0x21000007
     4ba: 12 00                        	adcb	(%eax), %al
     4bc: 00 00                        	addb	%al, (%eax)
     4be: 00 26                        	addb	%ah, (%esi)
     4c0: 05 0f 21 12 00               	addl	$0x12210f, %eax         # imm = 0x12210F
     4c5: 00 00                        	addb	%al, (%eax)
     4c7: 10 2d c8 07 00 00            	adcb	%ch, 0x7c8
     4cd: 11 f1                        	adcl	%esi, %ecx
     4cf: 00 00                        	addb	%al, (%eax)
     4d1: 00 21                        	addb	%ah, (%ecx)
     4d3: 12 00                        	adcb	(%eax), %al
     4d5: 00 00                        	addb	%al, (%eax)
     4d7: 00 0b                        	addb	%cl, (%ebx)
     4d9: 09 18                        	orl	%ebx, (%eax)
     4db: 0a f5                        	orb	%ch, %dh
     4dd: 00 00                        	addb	%al, (%eax)
     4df: 00 00                        	addb	%al, (%eax)
     4e1: 00 00                        	addb	%al, (%eax)
     4e3: 11 bb 07 00 00 22            	adcl	%edi, 0x22000007(%ebx)
     4e9: 1e                           	pushl	%ds
     4ea: 00 00                        	addb	%al, (%eax)
     4ec: 00 00                        	addb	%al, (%eax)
     4ee: 37                           	aaa
     4ef: 05 12 01 69 bf               	addl	$0xbf690112, %eax       # imm = 0xBF690112
     4f4: 07                           	popl	%es
     4f5: 00 00                        	addb	%al, (%eax)
     4f7: 11 f1                        	adcl	%esi, %ecx
     4f9: 00 00                        	addb	%al, (%eax)
     4fb: 00 22                        	addb	%ah, (%edx)
     4fd: 10 00                        	adcb	%al, (%eax)
     4ff: 00 00                        	addb	%al, (%eax)
     501: 00 0b                        	addb	%cl, (%ebx)
     503: 09 12                        	orl	%edx, (%edx)
     505: 01 5a f5                     	addl	%ebx, -0xb(%edx)
     508: 00 00                        	addb	%al, (%eax)
     50a: 00 00                        	addb	%al, (%eax)
     50c: 00 11                        	addb	%dl, (%ecx)
     50e: 83 08 00                     	orl	$0x0, (%eax)
     511: 00 23                        	addb	%ah, (%ebx)
     513: e4 00                        	inb	$0x0, %al
     515: 00 00                        	addb	%al, (%eax)
     517: 00 38                        	addb	%bh, (%eax)
     519: 05 0e 37 87 08               	addl	$0x887370e, %eax        # imm = 0x887370E
     51e: 00 00                        	addb	%al, (%eax)
     520: 10 36                        	adcb	%dh, (%esi)
     522: 8f 08 00 00                  	<unknown>
     526: 17                           	popl	%ss
     527: 05 10 38 a0 08               	addl	$0x8a03810, %eax        # imm = 0x8A03810
     52c: 00 00                        	addb	%al, (%eax)
     52e: 00 11                        	addb	%dl, (%ecx)
     530: bb 07 00 00 24               	movl	$0x24000007, %ebx       # imm = 0x24000007
     535: 2e 00 00                     	addb	%al, %cs:(%eax)
     538: 00 00                        	addb	%al, (%eax)
     53a: 18 05 0f 24 2e 00            	sbbb	%al, 0x2e240f
     540: 00 00                        	addb	%al, (%eax)
     542: 10 3a                        	adcb	%bh, (%edx)
     544: c8 07 00 00                  	enter	$0x7, $0x0
     548: 11 f1                        	adcl	%esi, %ecx
     54a: 00 00                        	addb	%al, (%eax)
     54c: 00 24 2e                     	addb	%ah, (%esi,%ebp)
     54f: 00 00                        	addb	%al, (%eax)
     551: 00 00                        	addb	%al, (%eax)
     553: 0b 09                        	orl	(%ecx), %ecx
     555: 0e                           	pushl	%cs
     556: 39 f5                        	cmpl	%esi, %ebp
     558: 00 00                        	addb	%al, (%eax)
     55a: 00 00                        	addb	%al, (%eax)
     55c: 00 00                        	addb	%al, (%eax)
     55e: 11 bb 07 00 00 25            	adcl	%edi, 0x25000007(%ebx)
     564: 18 00                        	sbbb	%al, (%eax)
     566: 00 00                        	addb	%al, (%eax)
     568: 00 19                        	addb	%bl, (%ecx)
     56a: 05 0f 25 18 00               	addl	$0x18250f, %eax         # imm = 0x18250F
     56f: 00 00                        	addb	%al, (%eax)
     571: 10 3b                        	adcb	%bh, (%ebx)
     573: c8 07 00 00                  	enter	$0x7, $0x0
     577: 11 f1                        	adcl	%esi, %ecx
     579: 00 00                        	addb	%al, (%eax)
     57b: 00 25 10 00 00 00            	addb	%ah, 0x10
     581: 00 0b                        	addb	%cl, (%ebx)
     583: 09 12                        	orl	%edx, (%edx)
     585: 01 5a f5                     	addl	%ebx, -0xb(%edx)
     588: 00 00                        	addb	%al, (%eax)
     58a: 00 00                        	addb	%al, (%eax)
     58c: 00 00                        	addb	%al, (%eax)
     58e: 00 11                        	addb	%dl, (%ecx)
     590: bb 07 00 00 26               	movl	$0x26000007, %ebx       # imm = 0x26000007
     595: c8 00 00 00                  	enter	$0x0, $0x0
     599: 00 39                        	addb	%bh, (%ecx)
     59b: 05 0f 26 c8 00               	addl	$0xc8260f, %eax         # imm = 0xC8260F
     5a0: 00 00                        	addb	%al, (%eax)
     5a2: 10 3c c8                     	adcb	%bh, (%eax,%ecx,8)
     5a5: 07                           	popl	%es
     5a6: 00 00                        	addb	%al, (%eax)
     5a8: 11 f1                        	adcl	%esi, %ecx
     5aa: 00 00                        	addb	%al, (%eax)
     5ac: 00 26                        	addb	%ah, (%esi)
     5ae: c8 00 00 00                  	enter	$0x0, $0x0
     5b2: 00 0b                        	addb	%cl, (%ebx)
     5b4: 09 0e                        	orl	%ecx, (%esi)
     5b6: 3d f5 00 00 00               	cmpl	$0xf5, %eax
     5bb: 00 00                        	addb	%al, (%eax)
     5bd: 00 11                        	addb	%dl, (%ecx)
     5bf: 83 08 00                     	orl	$0x0, (%eax)
     5c2: 00 27                        	addb	%ah, (%edi)
     5c4: ec                           	inb	%dx, %al
     5c5: 00 00                        	addb	%al, (%eax)
     5c7: 00 00                        	addb	%al, (%eax)
     5c9: 3a 05 0e 3e 87 08            	cmpb	0x8873e0e, %al
     5cf: 00 00                        	addb	%al, (%eax)
     5d1: 10 3f                        	adcb	%bh, (%edi)
     5d3: 8f 08 00 00                  	<unknown>
     5d7: 17                           	popl	%ss
     5d8: 06                           	pushl	%es
     5d9: 10 40 a0                     	adcb	%al, -0x60(%eax)
     5dc: 08 00                        	orb	%al, (%eax)
     5de: 00 00                        	addb	%al, (%eax)
     5e0: 11 bb 07 00 00 28            	adcl	%edi, 0x28000007(%ebx)
     5e6: 32 00                        	xorb	(%eax), %al
     5e8: 00 00                        	addb	%al, (%eax)
     5ea: 00 18                        	addb	%bl, (%eax)
     5ec: 05 0f 28 32 00               	addl	$0x32280f, %eax         # imm = 0x32280F
     5f1: 00 00                        	addb	%al, (%eax)
     5f3: 10 42 c8                     	adcb	%al, -0x38(%edx)
     5f6: 07                           	popl	%es
     5f7: 00 00                        	addb	%al, (%eax)
     5f9: 11 f1                        	adcl	%esi, %ecx
     5fb: 00 00                        	addb	%al, (%eax)
     5fd: 00 28                        	addb	%ch, (%eax)
     5ff: 32 00                        	xorb	(%eax), %al
     601: 00 00                        	addb	%al, (%eax)
     603: 00 0b                        	addb	%cl, (%ebx)
     605: 09 0e                        	orl	%ecx, (%esi)
     607: 41                           	incl	%ecx
     608: f5                           	cmc
     609: 00 00                        	addb	%al, (%eax)
     60b: 00 00                        	addb	%al, (%eax)
     60d: 00 00                        	addb	%al, (%eax)
     60f: 11 bb 07 00 00 29            	adcl	%edi, 0x29000007(%ebx)
     615: 1a 00                        	sbbb	(%eax), %al
     617: 00 00                        	addb	%al, (%eax)
     619: 00 19                        	addb	%bl, (%ecx)
     61b: 05 0f 29 1a 00               	addl	$0x1a290f, %eax         # imm = 0x1A290F
     620: 00 00                        	addb	%al, (%eax)
     622: 10 43 c8                     	adcb	%al, -0x38(%ebx)
     625: 07                           	popl	%es
     626: 00 00                        	addb	%al, (%eax)
     628: 11 f1                        	adcl	%esi, %ecx
     62a: 00 00                        	addb	%al, (%eax)
     62c: 00 29                        	addb	%ch, (%ecx)
     62e: 12 00                        	adcb	(%eax), %al
     630: 00 00                        	addb	%al, (%eax)
     632: 00 0b                        	addb	%cl, (%ebx)
     634: 09 12                        	orl	%edx, (%edx)
     636: 01 5a f5                     	addl	%ebx, -0xb(%edx)
     639: 00 00                        	addb	%al, (%eax)
     63b: 00 00                        	addb	%al, (%eax)
     63d: 00 00                        	addb	%al, (%eax)
     63f: 00 11                        	addb	%dl, (%ecx)
     641: bb 07 00 00 2a               	movl	$0x2a000007, %ebx       # imm = 0x2A000007
     646: 04 00                        	addb	$0x0, %al
     648: 00 00                        	addb	%al, (%eax)
     64a: 00 3b                        	addb	%bh, (%ebx)
     64c: 05 0f 2a 04 00               	addl	$0x42a0f, %eax          # imm = 0x42A0F
     651: 00 00                        	addb	%al, (%eax)
     653: 19 01                        	sbbl	%eax, (%ecx)
     655: c8 07 00 00                  	enter	$0x7, $0x0
     659: 11 f1                        	adcl	%esi, %ecx
     65b: 00 00                        	addb	%al, (%eax)
     65d: 00 2a                        	addb	%ch, (%edx)
     65f: 04 00                        	addb	$0x0, %al
     661: 00 00                        	addb	%al, (%eax)
     663: 00 0b                        	addb	%cl, (%ebx)
     665: 09 18                        	orl	%ebx, (%eax)
     667: 0a f5                        	orb	%ch, %dh
     669: 00 00                        	addb	%al, (%eax)
     66b: 00 00                        	addb	%al, (%eax)
     66d: 00 00                        	addb	%al, (%eax)
     66f: 13 5d 01                     	adcl	0x1(%ebp), %ebx
     672: 00 00                        	addb	%al, (%eax)
     674: 2b 13                        	subl	(%ebx), %edx
     676: 5d                           	popl	%ebp
     677: 01 00                        	addl	%eax, (%eax)
     679: 00 2c 13                     	addb	%ch, (%ebx,%edx)
     67c: 5d                           	popl	%ebp
     67d: 01 00                        	addl	%eax, (%eax)
     67f: 00 2d 13 5d 01 00            	addb	%ch, 0x15d13
     685: 00 2e                        	addb	%ch, (%esi)
     687: 13 5d 01                     	adcl	0x1(%ebp), %ebx
     68a: 00 00                        	addb	%al, (%eax)
     68c: 2f                           	das
     68d: 13 5d 01                     	adcl	0x1(%ebp), %ebx
     690: 00 00                        	addb	%al, (%eax)
     692: 30 13                        	xorb	%dl, (%ebx)
     694: 5d                           	popl	%ebp
     695: 01 00                        	addl	%eax, (%eax)
     697: 00 31                        	addb	%dh, (%ecx)
     699: 13 5d 01                     	adcl	0x1(%ebp), %ebx
     69c: 00 00                        	addb	%al, (%eax)
     69e: 32 13                        	xorb	(%ebx), %dl
     6a0: 5d                           	popl	%ebp
     6a1: 01 00                        	addl	%eax, (%eax)
     6a3: 00 33                        	addb	%dh, (%ebx)
     6a5: 13 5d 01                     	adcl	0x1(%ebp), %ebx
     6a8: 00 00                        	addb	%al, (%eax)
     6aa: 34 13                        	xorb	$0x13, %al
     6ac: 5d                           	popl	%ebp
     6ad: 01 00                        	addl	%eax, (%eax)
     6af: 00 35 13 5d 01 00            	addb	%dh, 0x15d13
     6b5: 00 16                        	addb	%dl, (%esi)
     6b7: 13 5d 01                     	adcl	0x1(%ebp), %ebx
     6ba: 00 00                        	addb	%al, (%eax)
     6bc: 36 13 5d 01                  	adcl	%ss:0x1(%ebp), %ebx
     6c0: 00 00                        	addb	%al, (%eax)
     6c2: 37                           	aaa
     6c3: 13 5d 01                     	adcl	0x1(%ebp), %ebx
     6c6: 00 00                        	addb	%al, (%eax)
     6c8: 38 13                        	cmpb	%dl, (%ebx)
     6ca: 5d                           	popl	%ebp
     6cb: 01 00                        	addl	%eax, (%eax)
     6cd: 00 39                        	addb	%bh, (%ecx)
     6cf: 13 5d 01                     	adcl	0x1(%ebp), %ebx
     6d2: 00 00                        	addb	%al, (%eax)
     6d4: 3a 13                        	cmpb	(%ebx), %dl
     6d6: 5d                           	popl	%ebp
     6d7: 01 00                        	addl	%eax, (%eax)
     6d9: 00 3b                        	addb	%bh, (%ebx)
     6db: 13 5d 01                     	adcl	0x1(%ebp), %ebx
     6de: 00 00                        	addb	%al, (%eax)
     6e0: 3c 13                        	cmpb	$0x13, %al
     6e2: 5d                           	popl	%ebp
     6e3: 01 00                        	addl	%eax, (%eax)
     6e5: 00 3d 13 5d 01 00            	addb	%bh, 0x15d13
     6eb: 00 3e                        	addb	%bh, (%esi)
     6ed: 13 5d 01                     	adcl	0x1(%ebp), %ebx
     6f0: 00 00                        	addb	%al, (%eax)
     6f2: 3f                           	aas
     6f3: 13 5d 01                     	adcl	0x1(%ebp), %ebx
     6f6: 00 00                        	addb	%al, (%eax)
     6f8: 40                           	incl	%eax
     6f9: 13 5d 01                     	adcl	0x1(%ebp), %ebx
     6fc: 00 00                        	addb	%al, (%eax)
     6fe: 1a 13                        	sbbb	(%ebx), %dl
     700: 5d                           	popl	%ebp
     701: 01 00                        	addl	%eax, (%eax)
     703: 00 41 13                     	addb	%al, 0x13(%ecx)
     706: 5d                           	popl	%ebp
     707: 01 00                        	addl	%eax, (%eax)
     709: 00 42 13                     	addb	%al, 0x13(%edx)
     70c: 5d                           	popl	%ebp
     70d: 01 00                        	addl	%eax, (%eax)
     70f: 00 43 13                     	addb	%al, 0x13(%ebx)
     712: 5d                           	popl	%ebp
     713: 01 00                        	addl	%eax, (%eax)
     715: 00 44 13 5d                  	addb	%al, 0x5d(%ebx,%edx)
     719: 01 00                        	addl	%eax, (%eax)
     71b: 00 1e                        	addb	%bl, (%esi)
     71d: 13 5d 01                     	adcl	0x1(%ebp), %ebx
     720: 00 00                        	addb	%al, (%eax)
     722: 45                           	incl	%ebp
     723: 13 5d 01                     	adcl	0x1(%ebp), %ebx
     726: 00 00                        	addb	%al, (%eax)
     728: 46                           	incl	%esi
     729: 13 5d 01                     	adcl	0x1(%ebp), %ebx
     72c: 00 00                        	addb	%al, (%eax)
     72e: 47                           	incl	%edi
     72f: 13 5d 01                     	adcl	0x1(%ebp), %ebx
     732: 00 00                        	addb	%al, (%eax)
     734: 48                           	decl	%eax
     735: 13 5d 01                     	adcl	0x1(%ebp), %ebx
     738: 00 00                        	addb	%al, (%eax)
     73a: 49                           	decl	%ecx
     73b: 13 5d 01                     	adcl	0x1(%ebp), %ebx
     73e: 00 00                        	addb	%al, (%eax)
     740: 4a                           	decl	%edx
     741: 13 5d 01                     	adcl	0x1(%ebp), %ebx
     744: 00 00                        	addb	%al, (%eax)
     746: 4b                           	decl	%ebx
     747: 13 5d 01                     	adcl	0x1(%ebp), %ebx
     74a: 00 00                        	addb	%al, (%eax)
     74c: 4c                           	decl	%esp
     74d: 13 5d 01                     	adcl	0x1(%ebp), %ebx
     750: 00 00                        	addb	%al, (%eax)
     752: 4d                           	decl	%ebp
     753: 13 5d 01                     	adcl	0x1(%ebp), %ebx
     756: 00 00                        	addb	%al, (%eax)
     758: 4e                           	decl	%esi
     759: 13 5d 01                     	adcl	0x1(%ebp), %ebx
     75c: 00 00                        	addb	%al, (%eax)
     75e: 4f                           	decl	%edi
     75f: 13 5d 01                     	adcl	0x1(%ebp), %ebx
     762: 00 00                        	addb	%al, (%eax)
     764: 50                           	pushl	%eax
     765: 13 5d 01                     	adcl	0x1(%ebp), %ebx
     768: 00 00                        	addb	%al, (%eax)
     76a: 51                           	pushl	%ecx
     76b: 13 5d 01                     	adcl	0x1(%ebp), %ebx
     76e: 00 00                        	addb	%al, (%eax)
     770: 52                           	pushl	%edx
     771: 13 5d 01                     	adcl	0x1(%ebp), %ebx
     774: 00 00                        	addb	%al, (%eax)
     776: 53                           	pushl	%ebx
     777: 13 5d 01                     	adcl	0x1(%ebp), %ebx
     77a: 00 00                        	addb	%al, (%eax)
     77c: 54                           	pushl	%esp
     77d: 13 5d 01                     	adcl	0x1(%ebp), %ebx
     780: 00 00                        	addb	%al, (%eax)
     782: 55                           	pushl	%ebp
     783: 13 5d 01                     	adcl	0x1(%ebp), %ebx
     786: 00 00                        	addb	%al, (%eax)
     788: 27                           	daa
     789: 13 5d 01                     	adcl	0x1(%ebp), %ebx
     78c: 00 00                        	addb	%al, (%eax)
     78e: 56                           	pushl	%esi
     78f: 13 5d 01                     	adcl	0x1(%ebp), %ebx
     792: 00 00                        	addb	%al, (%eax)
     794: 57                           	pushl	%edi
     795: 13 5d 01                     	adcl	0x1(%ebp), %ebx
     798: 00 00                        	addb	%al, (%eax)
     79a: 58                           	popl	%eax
     79b: 00 0d 08 10 00 00            	addb	%cl, 0x1008
     7a1: 00 01                        	addb	%al, (%ecx)
     7a3: 52                           	pushl	%edx
     7a4: f1                           	<unknown>
     7a5: 00 00                        	addb	%al, (%eax)
     7a7: 00 12                        	addb	%dl, (%edx)
     7a9: 01 5a f5                     	addl	%ebx, -0xb(%edx)
     7ac: 00 00                        	addb	%al, (%eax)
     7ae: 00 1a                        	addb	%bl, (%edx)
     7b0: fd                           	std
     7b1: 00 00                        	addb	%al, (%eax)
     7b3: 00 1b                        	addb	%bl, (%ebx)
     7b5: 5d                           	popl	%ebp
     7b6: 01 00                        	addl	%eax, (%eax)
     7b8: 00 09                        	addb	%cl, (%ecx)
     7ba: 00 08                        	addb	%cl, (%eax)
     7bc: 0c 00                        	orb	$0x0, %al
     7be: 09 09                        	orl	%ecx, (%ecx)
     7c0: 0d 00 09 d2 07               	orl	$0x7d20900, %eax        # imm = 0x7D20900
     7c5: 00 00                        	addb	%al, (%eax)
     7c7: 1c 0a                        	sbbb	$0xa, %al
     7c9: 0e                           	pushl	%cs
     7ca: 00 0a                        	addb	%cl, (%edx)
     7cc: dc 07                        	faddl	(%edi)
     7ce: 00 00                        	addb	%al, (%eax)
     7d0: 00 00                        	addb	%al, (%eax)
     7d2: 1d d7 07 00 00               	sbbl	$0x7d7, %eax            # imm = 0x7D7
     7d7: 1e                           	pushl	%ds
     7d8: 3e 00 00                     	addb	%al, %ds:(%eax)
     7db: 00 05 0f 05 04 0d            	addb	%al, 0xd04050f
     7e1: 0a fa                        	orb	%dl, %bh
     7e3: 00 00                        	addb	%al, (%eax)
     7e5: 00 01                        	addb	%al, (%ecx)
     7e7: 52                           	pushl	%edx
     7e8: 83 08 00                     	orl	$0x0, (%eax)
     7eb: 00 0e                        	addb	%cl, (%esi)
     7ed: 02 87 08 00 00 1f            	addb	0x1f000008(%edi), %al
     7f3: 02 91 07 8f 08 00            	addb	0x88f07(%ecx), %dl
     7f9: 00 1a                        	addb	%bl, (%edx)
     7fb: 97                           	xchgl	%edi, %eax
     7fc: 08 00                        	orb	%al, (%eax)
     7fe: 00 17                        	addb	%dl, (%edi)
     800: 00 10                        	addb	%dl, (%eax)
     802: 03 a0 08 00 00 00            	addl	0x8(%eax), %esp
     808: 11 bb 07 00 00 0b            	adcl	%edi, 0xb000007(%ebx)
     80e: 2c 00                        	subb	$0x0, %al
     810: 00 00                        	addb	%al, (%eax)
     812: 00 18                        	addb	%bl, (%eax)
     814: 05 0f 0b 2c 00               	addl	$0x2c0b0f, %eax         # imm = 0x2C0B0F
     819: 00 00                        	addb	%al, (%eax)
     81b: 10 05 c8 07 00 00            	adcb	%al, 0x7c8
     821: 11 f1                        	adcl	%esi, %ecx
     823: 00 00                        	addb	%al, (%eax)
     825: 00 0b                        	addb	%cl, (%ebx)
     827: 2c 00                        	subb	$0x0, %al
     829: 00 00                        	addb	%al, (%eax)
     82b: 00 0b                        	addb	%cl, (%ebx)
     82d: 09 0e                        	orl	%ecx, (%esi)
     82f: 04 f5                        	addb	$-0xb, %al
     831: 00 00                        	addb	%al, (%eax)
     833: 00 00                        	addb	%al, (%eax)
     835: 00 00                        	addb	%al, (%eax)
     837: 11 bb 07 00 00 0c            	adcl	%edi, 0xc000007(%ebx)
     83d: 18 00                        	sbbb	%al, (%eax)
     83f: 00 00                        	addb	%al, (%eax)
     841: 00 19                        	addb	%bl, (%ecx)
     843: 05 12 03 91 07               	addl	$0x7910312, %eax        # imm = 0x7910312
     848: 9f                           	lahf
     849: bf 07 00 00 0f               	movl	$0xf000007, %edi        # imm = 0xF000007
     84e: 0c 18                        	orb	$0x18, %al
     850: 00 00                        	addb	%al, (%eax)
     852: 00 10                        	addb	%dl, (%eax)
     854: 06                           	pushl	%es
     855: c8 07 00 00                  	enter	$0x7, $0x0
     859: 11 f1                        	adcl	%esi, %ecx
     85b: 00 00                        	addb	%al, (%eax)
     85d: 00 0c 10                     	addb	%cl, (%eax,%edx)
     860: 00 00                        	addb	%al, (%eax)
     862: 00 00                        	addb	%al, (%eax)
     864: 0b 09                        	orl	(%ecx), %ecx
     866: 12 01                        	adcb	(%ecx), %al
     868: 5a                           	popl	%edx
     869: f5                           	cmc
     86a: 00 00                        	addb	%al, (%eax)
     86c: 00 00                        	addb	%al, (%eax)
     86e: 00 00                        	addb	%al, (%eax)
     870: 13 5d 01                     	adcl	0x1(%ebp), %ebx
     873: 00 00                        	addb	%al, (%eax)
     875: 0d 13 5d 01 00               	orl	$0x15d13, %eax          # imm = 0x15D13
     87a: 00 0e                        	addb	%cl, (%esi)
     87c: 13 5d 01                     	adcl	0x1(%ebp), %ebx
     87f: 00 00                        	addb	%al, (%eax)
     881: 0f 00 08                     	strw	(%eax)
     884: 10 00                        	adcb	%al, (%eax)
     886: 10 09                        	adcb	%cl, (%ecx)
     888: 11 00                        	adcl	%eax, (%eax)
     88a: 10 aa 08 00 00 0a            	adcb	%ch, 0xa000008(%edx)
     890: 13 00                        	adcl	(%eax), %eax
     892: 12 50 00                     	adcb	(%eax), %dl
     895: 00 00                        	addb	%al, (%eax)
     897: 0a 14 00                     	orb	(%eax,%eax), %dl
     89a: 11 50 00                     	adcl	%edx, (%eax)
     89d: 00 00                        	addb	%al, (%eax)
     89f: 1c 0a                        	sbbb	$0xa, %al
     8a1: 0e                           	pushl	%cs
     8a2: 00 14 dc                     	addb	%dl, (%esp,%ebx,8)
     8a5: 07                           	popl	%es
     8a6: 00 00                        	addb	%al, (%eax)
     8a8: 00 00                        	addb	%al, (%eax)
     8aa: 05 12 07 04 0d               	addl	$0xd040712, %eax        # imm = 0xD040712
     8af: 59                           	popl	%ecx
     8b0: 22 00                        	andb	(%eax), %al
     8b2: 00 00                        	addb	%al, (%eax)
     8b4: 01 52 d3                     	addl	%edx, -0x2d(%edx)
     8b7: 08 00                        	orb	%al, (%eax)
     8b9: 00 0f                        	addb	%cl, (%edi)
     8bb: 59                           	popl	%ecx
     8bc: 20 00                        	andb	%al, (%eax)
     8be: 00 00                        	addb	%al, (%eax)
     8c0: 10 44 d8 08                  	adcb	%al, 0x8(%eax,%ebx,8)
     8c4: 00 00                        	addb	%al, (%eax)
     8c6: 00 00                        	addb	%al, (%eax)
     8c8: 20 5a 0c                     	andb	%bl, 0xc(%edx)
     8cb: 00 00                        	addb	%al, (%eax)
     8cd: 00 01                        	addb	%al, (%ecx)
     8cf: 52                           	pushl	%edx
     8d0: 18 00                        	sbbb	%al, (%eax)
     8d2: 4d                           	decl	%ebp
     8d3: 08 15 00 45 1c 0a            	orb	%dl, 0xa1c4500
     8d9: 16                           	pushl	%ss
     8da: 00 46 e2                     	addb	%al, -0x1e(%esi)
     8dd: 08 00                        	orb	%al, (%eax)
     8df: 00 00                        	addb	%al, (%eax)
     8e1: 00 1d 3e 00 00 00            	addb	%bl, 0x3e
     8e7: 21 5b 88                     	andl	%ebx, -0x78(%ebx)
     8ea: 00 00                        	addb	%al, (%eax)
     8ec: 00 01                        	addb	%al, (%ecx)
     8ee: 52                           	pushl	%edx
     8ef: 19 00                        	sbbl	%eax, (%eax)
     8f1: 57                           	pushl	%edi
     8f2: 0a 0d 00 5a d2 07            	orb	0x7d25a00, %cl
     8f8: 00 00                        	addb	%al, (%eax)
     8fa: 11 bb 07 00 00 5c            	adcl	%edi, 0x5c000007(%ebx)
     900: 1c 00                        	sbbb	$0x0, %al
     902: 00 00                        	addb	%al, (%eax)
     904: 00 58 05                     	addb	%bl, 0x5(%eax)
     907: 11 f1                        	adcl	%esi, %ecx
     909: 00 00                        	addb	%al, (%eax)
     90b: 00 5c 12 00                  	addb	%bl, (%edx,%edx)
     90f: 00 00                        	addb	%al, (%eax)
     911: 00 0b                        	addb	%cl, (%ebx)
     913: 09 12                        	orl	%edx, (%edx)
     915: 01 5a f5                     	addl	%ebx, -0xb(%edx)
     918: 00 00                        	addb	%al, (%eax)
     91a: 00 00                        	addb	%al, (%eax)
     91c: 00 11                        	addb	%dl, (%ecx)
     91e: d3 08                        	rorl	%cl, (%eax)
     920: 00 00                        	addb	%al, (%eax)
     922: 5d                           	popl	%ebp
     923: 20 00                        	andb	%al, (%eax)
     925: 00 00                        	addb	%al, (%eax)
     927: 00 59 05                     	addb	%bl, 0x5(%ecx)
     92a: 0f 5d 20                     	minps	(%eax), %xmm4
     92d: 00 00                        	addb	%al, (%eax)
     92f: 00 10                        	addb	%dl, (%eax)
     931: 45                           	incl	%ebp
     932: d8 08                        	fmuls	(%eax)
     934: 00 00                        	addb	%al, (%eax)
     936: 00 00                        	addb	%al, (%eax)
     938: 0f 5e 1c 00                  	divps	(%eax,%eax), %xmm3
     93c: 00 00                        	addb	%al, (%eax)
     93e: 0a 0e                        	orb	(%esi), %cl
     940: 00 5b dc                     	addb	%bl, -0x24(%ebx)
     943: 07                           	popl	%es
     944: 00 00                        	addb	%al, (%eax)
     946: 11 f1                        	adcl	%esi, %ecx
     948: 00 00                        	addb	%al, (%eax)
     94a: 00 5e 12                     	addb	%bl, 0x12(%esi)
     94d: 00 00                        	addb	%al, (%eax)
     94f: 00 00                        	addb	%al, (%eax)
     951: 5c                           	popl	%esp
     952: 09 12                        	orl	%edx, (%edx)
     954: 01 5a f5                     	addl	%ebx, -0xb(%edx)
     957: 00 00                        	addb	%al, (%eax)
     959: 00 00                        	addb	%al, (%eax)
     95b: 00 13                        	addb	%dl, (%ebx)
     95d: 5d                           	popl	%ebp
     95e: 01 00                        	addl	%eax, (%eax)
     960: 00 5f 13                     	addb	%bl, 0x13(%edi)
     963: 5d                           	popl	%ebp
     964: 01 00                        	addl	%eax, (%eax)
     966: 00 60 00                     	addb	%ah, (%eax)
     969: 00                           	<unknown>

Disassembly of section .debug_rnglists:

00000000 <$d>:
       0: 91                           	xchgl	%ecx, %eax
       1: 00 00                        	addb	%al, (%eax)
       3: 00 05 00 04 00 08            	addb	%al, 0x8000400
       9: 00 00                        	addb	%al, (%eax)
       b: 00 20                        	addb	%ah, (%eax)
       d: 00 00                        	addb	%al, (%eax)
       f: 00 2c 00                     	addb	%ch, (%eax,%eax)
      12: 00 00                        	addb	%al, (%eax)
      14: 39 00                        	cmpl	%eax, (%eax)
      16: 00 00                        	addb	%al, (%eax)
      18: 46                           	incl	%esi
      19: 00 00                        	addb	%al, (%eax)
      1b: 00 53 00                     	addb	%dl, (%ebx)
      1e: 00 00                        	addb	%al, (%eax)
      20: 60                           	pushal
      21: 00 00                        	addb	%al, (%eax)
      23: 00 6d 00                     	addb	%ch, (%ebp)
      26: 00 00                        	addb	%al, (%eax)
      28: 7a 00                        	jp	0x2a <$d+0x2a>
      2a: 00 00                        	addb	%al, (%eax)
      2c: 01 04 04                     	addl	%eax, (%esp,%eax)
      2f: 48                           	decl	%eax
      30: be 01 04 c2 01               	movl	$0x1c20401, %esi        # imm = 0x1C20401
      35: f0                           	lock
      36: 01 00                        	addl	%eax, (%eax)
      38: 01 04 04                     	addl	%eax, (%esp,%eax)
      3b: ae                           	scasb	%es:(%edi), %al
      3c: 03 a6 04 04 aa 04            	addl	0x4aa0404(%esi), %esp
      42: ce                           	into
      43: 04 00                        	addb	$0x0, %al
      45: 01 04 04                     	addl	%eax, (%esp,%eax)
      48: b4 06                        	movb	$0x6, %ah
      4a: ac                           	lodsb	(%esi), %al
      4b: 07                           	popl	%es
      4c: 04 b0                        	addb	$-0x50, %al
      4e: 07                           	popl	%es
      4f: d4 07                        	aam	$0x7
      51: 00 01                        	addb	%al, (%ecx)
      53: 04 04                        	addb	$0x4, %al
      55: d0 09                        	rorb	(%ecx)
      57: c8 0a 04 cc                  	enter	$0x40a, $-0x34          # imm = 0x40A
      5b: 0a f0                        	orb	%al, %dh
      5d: 0a 00                        	orb	(%eax), %al
      5f: 01 04 04                     	addl	%eax, (%esp,%eax)
      62: de 0b                        	fimuls	(%ebx)
      64: d6                           	salc
      65: 0c 04                        	orb	$0x4, %al
      67: da 0c fe                     	fimull	(%esi,%edi,8)
      6a: 0c 00                        	orb	$0x0, %al
      6c: 01 04 04                     	addl	%eax, (%esp,%eax)
      6f: 92                           	xchgl	%edx, %eax
      70: 0e                           	pushl	%cs
      71: 84 0f                        	testb	%cl, (%edi)
      73: 04 88                        	addb	$-0x78, %al
      75: 0f b0 0f                     	cmpxchgb	%cl, (%edi)
      78: 00 01                        	addb	%al, (%ecx)
      7a: 04 04                        	addb	$0x4, %al
      7c: be 11 b2 12 04               	movl	$0x412b211, %esi        # imm = 0x412B211
      81: b6 12                        	movb	$0x12, %dh
      83: de 12                        	ficoms	(%edx)
      85: 00 01                        	addb	%al, (%ecx)
      87: 04 04                        	addb	$0x4, %al
      89: 00 e0                        	addb	%ah, %al
      8b: 13 04 e0                     	adcl	(%eax,%eiz,8), %eax
      8e: 13 e8                        	adcl	%eax, %ebp
      90: 14 03                        	adcb	$0x3, %al
      92: 5a                           	popl	%edx
      93: 0c 00                        	orb	$0x0, %al

Disassembly of section .debug_str_offsets:

00000000 <$d>:
       0: ac                           	lodsb	(%esi), %al
       1: 00 00                        	addb	%al, (%eax)
       3: 00 05 00 00 00 88            	addb	%al, -0x78000000
       9: 00 00                        	addb	%al, (%eax)
       b: 00 00                        	addb	%al, (%eax)
       d: 00 00                        	addb	%al, (%eax)
       f: 00 dc                        	addb	%bl, %ah
      11: 00 00                        	addb	%al, (%eax)
      13: 00 6c 00 00                  	addb	%ch, (%eax,%eax)
      17: 00 bb 00 00 00 26            	addb	%bh, 0x26000000(%ebx)
      1d: 01 00                        	addl	%eax, (%eax)
      1f: 00 2e                        	addb	%ch, (%esi)
      21: 01 00                        	addl	%eax, (%eax)
      23: 00 65 00                     	addb	%ah, (%ebp)
      26: 00 00                        	addb	%al, (%eax)
      28: 75 00                        	jne	0x2a <$d+0x2a>
      2a: 00 00                        	addb	%al, (%eax)
      2c: 09 00                        	orl	%eax, (%eax)
      2e: 00 00                        	addb	%al, (%eax)
      30: 7b 00                        	jnp	0x32 <$d+0x32>
      32: 00 00                        	addb	%al, (%eax)
      34: ad                           	lodsl	(%esi), %eax
      35: 00 00                        	addb	%al, (%eax)
      37: 00 14 01                     	addb	%dl, (%ecx,%eax)
      3a: 00 00                        	addb	%al, (%eax)
      3c: 59                           	popl	%ecx
      3d: 00 00                        	addb	%al, (%eax)
      3f: 00 0e                        	addb	%cl, (%esi)
      41: 00 00                        	addb	%al, (%eax)
      43: 00 71 00                     	addb	%dh, (%ecx)
      46: 00 00                        	addb	%al, (%eax)
      48: 39 00                        	cmpl	%eax, (%eax)
      4a: 00 00                        	addb	%al, (%eax)
      4c: 37                           	aaa
      4d: 00 00                        	addb	%al, (%eax)
      4f: 00 06                        	addb	%al, (%esi)
      51: 01 00                        	addl	%eax, (%eax)
      53: 00 a6 00 00 00 1c            	addb	%ah, 0x1c000000(%esi)
      59: 00 00                        	addb	%al, (%eax)
      5b: 00 2a                        	addb	%ch, (%edx)
      5d: 00 00                        	addb	%al, (%eax)
      5f: 00 4e 00                     	addb	%cl, (%esi)
      62: 00 00                        	addb	%al, (%eax)
      64: 50                           	pushl	%eax
      65: 00 00                        	addb	%al, (%eax)
      67: 00 5b 00                     	addb	%bl, (%ebx)
      6a: 00 00                        	addb	%al, (%eax)
      6c: 10 00                        	adcb	%al, (%eax)
      6e: 00 00                        	addb	%al, (%eax)
      70: d7                           	xlatb
      71: 00 00                        	addb	%al, (%eax)
      73: 00 31                        	addb	%dh, (%ecx)
      75: 01 00                        	addl	%eax, (%eax)
      77: 00 21                        	addb	%ah, (%ecx)
      79: 01 00                        	addl	%eax, (%eax)
      7b: 00 43 00                     	addb	%al, (%ebx)
      7e: 00 00                        	addb	%al, (%eax)
      80: 60                           	pushal
      81: 00 00                        	addb	%al, (%eax)
      83: 00 cf                        	addb	%cl, %bh
      85: 00 00                        	addb	%al, (%eax)
      87: 00 b4 00 00 00 81 00         	addb	%dh, 0x810000(%eax,%eax)
      8e: 00 00                        	addb	%al, (%eax)
      90: 48                           	decl	%eax
      91: 00 00                        	addb	%al, (%eax)
      93: 00 69 00                     	addb	%ch, (%ecx)
      96: 00 00                        	addb	%al, (%eax)
      98: 27                           	daa
      99: 00 00                        	addb	%al, (%eax)
      9b: 00 b8 00 00 00 34            	addb	%bh, 0x34000000(%eax)
      a1: 00 00                        	addb	%al, (%eax)
      a3: 00 4b 00                     	addb	%cl, (%ebx)
      a6: 00 00                        	addb	%al, (%eax)
      a8: d4 00                        	aam	$0x0
      aa: 00 00                        	addb	%al, (%eax)
      ac: 85 00                        	testl	%eax, (%eax)
      ae: 00 00                        	addb	%al, (%eax)

Disassembly of section .debug_str:

00000000 <.debug_str>:
       0: 6b 65 72 6e                  	imull	$0x6e, 0x72(%ebp), %esp
       4: 65 6c                        	insb	%dx, %es:(%edi)
       6: 2e 63 00                     	arpl	%ax, %cs:(%eax)
       9: 6c                           	insb	%dx, %es:(%edi)
       a: 6f                           	outsl	(%esi), %dx
       b: 6e                           	outsb	(%esi), %dx
       c: 67 00 69 00                  	addb	%ch, (%bx,%di)
      10: 6b 65 72 6e                  	imull	$0x6e, 0x72(%ebp), %esp
      14: 65 6c                        	insb	%dx, %es:(%edi)
      16: 5f                           	popl	%edi
      17: 6d                           	insl	%dx, %es:(%edi)
      18: 61                           	popal
      19: 69 6e 00 68 65 78 5f         	imull	$0x5f786568, (%esi), %ebp # imm = 0x5F786568
      20: 64 69 67 69 74 73 00 61      	imull	$0x61007374, %fs:0x69(%edi), %esp # imm = 0x61007374
      28: 35 00 63 6c 65               	xorl	$0x656c6300, %eax       # imm = 0x656C6300
      2d: 61                           	popal
      2e: 72 5f                        	jb	0x8f <$d+0x8f>
      30: 62 73 73                     	bound	%esi, 0x73(%ebx)
      33: 00 61 33                     	addb	%ah, 0x33(%ecx)
      36: 00 6e 00                     	addb	%ch, (%esi)
      39: 70 72                        	jo	0xad <$d+0xad>
      3b: 69 6e 74 5f 68 65 78         	imull	$0x7865685f, 0x74(%esi), %ebp # imm = 0x7865685F
      42: 00 61 72                     	addb	%ah, 0x72(%ecx)
      45: 67 33 00                     	xorl	(%bx,%si), %eax
      48: 61                           	popal
      49: 37                           	aaa
      4a: 00 61 32                     	addb	%ah, 0x32(%ecx)
      4d: 00 62 00                     	addb	%ah, (%edx)
      50: 73 62                        	jae	0xb4 <$d+0xb4>
      52: 69 5f 63 61 6c 6c 00         	imull	$0x6c6c61, 0x63(%edi), %ebx # imm = 0x6C6C61
      59: 73 00                        	jae	0x5b <$d+0x5b>
      5b: 62 6f 6f                     	bound	%ebp, 0x6f(%edi)
      5e: 74 00                        	je	0x60 <$d+0x60>
      60: 61                           	popal
      61: 72 67                        	jb	0xca <$d+0xca>
      63: 34 00                        	xorb	$0x0, %al
      65: 72 65                        	jb	0xcc <$d+0xcc>
      67: 74 00                        	je	0x69 <$d+0x69>
      69: 61                           	popal
      6a: 36 00 63 68                  	addb	%ah, %ss:0x68(%ebx)
      6e: 61                           	popal
      6f: 72 00                        	jb	0x71 <$d+0x71>
      71: 69 6e 74 00 65 72 72         	imull	$0x72726500, 0x74(%esi), %ebp # imm = 0x72726500
      78: 6f                           	outsl	(%esi), %dx
      79: 72 00                        	jb	0x7b <$d+0x7b>
      7b: 76 61                        	jbe	0xde <$d+0xde>
      7d: 6c                           	insb	%dx, %es:(%edi)
      7e: 75 65                        	jne	0xe5 <$d+0xe5>
      80: 00 65 69                     	addb	%ah, 0x69(%ebp)
      83: 64 00 61 30                  	addb	%ah, %fs:0x30(%ecx)
      87: 00 48 6f                     	addb	%cl, 0x6f(%eax)

00000088 <$d>:
      88: 48                           	decl	%eax
      89: 6f                           	outsl	(%esi), %dx
      8a: 6d                           	insl	%dx, %es:(%edi)
      8b: 65 62 72 65                  	bound	%esi, %gs:0x65(%edx)
      8f: 77 20                        	ja	0xb1 <$d+0xb1>
      91: 63 6c 61 6e                  	arpl	%bp, 0x6e(%ecx,%eiz,2)
      95: 67 20 76 65                  	andb	%dh, 0x65(%bp)
      99: 72 73                        	jb	0x10e <$d+0x10e>
      9b: 69 6f 6e 20 31 39 2e         	imull	$0x2e393120, 0x6e(%edi), %ebp # imm = 0x2E393120
      a2: 31 2e                        	xorl	%ebp, (%esi)
      a4: 37                           	aaa
      a5: 00 62 75                     	addb	%ah, 0x75(%edx)
      a8: 66 66 65 72 00               	jb	0xad <$d+0xad>
      ad: 73 62                        	jae	0x111 <$d+0x111>
      af: 69 72 65 74 00 66 69         	imull	$0x69660074, 0x65(%edx), %esi # imm = 0x69660074
      b6: 64 00 61 34                  	addb	%ah, %fs:0x34(%ecx)
      ba: 00 5f 5f                     	addb	%bl, 0x5f(%edi)
      bd: 41                           	incl	%ecx
      be: 52                           	pushl	%edx
      bf: 52                           	pushl	%edx
      c0: 41                           	incl	%ecx
      c1: 59                           	popl	%ecx
      c2: 5f                           	popl	%edi
      c3: 53                           	pushl	%ebx
      c4: 49                           	decl	%ecx
      c5: 5a                           	popl	%edx
      c6: 45                           	incl	%ebp
      c7: 5f                           	popl	%edi
      c8: 54                           	pushl	%esp
      c9: 59                           	popl	%ecx
      ca: 50                           	pushl	%eax
      cb: 45                           	incl	%ebp
      cc: 5f                           	popl	%edi
      cd: 5f                           	popl	%edi
      ce: 00 61 72                     	addb	%ah, 0x72(%ecx)
      d1: 67 35 00 61 31 00            	addr16		xorl	$0x316100, %eax # imm = 0x316100
      d7: 61                           	popal
      d8: 72 67                        	jb	0x141 <$d+0x141>
      da: 30 00                        	xorb	%al, (%eax)
      dc: 2f                           	das
      dd: 55                           	pushl	%ebp
      de: 73 65                        	jae	0x145 <$d+0x145>
      e0: 72 73                        	jb	0x155 <$d+0x155>
      e2: 2f                           	das
      e3: 73 68                        	jae	0x14d <$d+0x14d>
      e5: 69 6b 68 61 72 6b 6f         	imull	$0x6f6b7261, 0x68(%ebx), %ebp # imm = 0x6F6B7261
      ec: 68 6c 69 2f 63               	pushl	$0x632f696c             # imm = 0x632F696C
      f1: 6f                           	outsl	(%esi), %dx
      f2: 64 65 2f                     	das
      f5: 74 68                        	je	0x15f <$d+0x15f>
      f7: 6f                           	outsl	(%esi), %dx
      f8: 75 73                        	jne	0x16d <$d+0x16d>
      fa: 61                           	popal
      fb: 6e                           	outsb	(%esi), %dx
      fc: 64 2d 6c 69 6e 65            	subl	$0x656e696c, %eax       # imm = 0x656E696C
     102: 2d 6f 73 00 75               	subl	$0x7500736f, %eax       # imm = 0x7500736F
     107: 6e                           	outsb	(%esi), %dx
     108: 73 69                        	jae	0x173 <$d+0x173>
     10a: 67 6e                        	outsb	(%si), %dx
     10c: 65 64 20 6c 6f 6e            	andb	%ch, %fs:0x6e(%edi,%ebp,2)
     112: 67 00 70 72                  	addb	%dh, 0x72(%bx,%si)
     116: 69 6e 74 5f 73 74 72         	imull	$0x7274735f, 0x74(%esi), %ebp # imm = 0x7274735F
     11d: 69 6e 67 00 61 72 67         	imull	$0x67726100, 0x67(%esi), %ebp # imm = 0x67726100
     124: 32 00                        	xorb	(%eax), %al
     126: 70 75                        	jo	0x19d <$d+0x19d>
     128: 74 63                        	je	0x18d <$d+0x18d>
     12a: 68 61 72 00 63               	pushl	$0x63007261             # imm = 0x63007261
     12f: 68 00 61 72 67               	pushl	$0x67726100             # imm = 0x67726100
     134: 31 00                        	xorl	%eax, (%eax)

Disassembly of section .debug_addr:

00000000 <$d>:
       0: 88 01                        	movb	%al, (%ecx)
       2: 00 00                        	addb	%al, (%eax)
       4: 05 00 04 00 74               	addl	$0x74000400, %eax       # imm = 0x74000400
       9: 0a 20                        	orb	(%eax), %ah
       b: 80 a9 0a 20 80 95 0a         	subb	$0xa, -0x6a7fdff6(%ecx)
      12: 20 80 85 0a 20 80            	andb	%al, -0x7fdff57b(%eax)
      18: 0c 00                        	orb	$0x0, %al
      1a: 20 80 0e 00 20 80            	andb	%al, -0x7fdffff2(%eax)
      20: 1e                           	pushl	%ds
      21: 00 20                        	addb	%ah, (%eax)
      23: 80 2e 00                     	subb	$0x0, (%esi)
      26: 20 80 3e 00 20 80            	andb	%al, -0x7fdfffc2(%eax)
      2c: 4c                           	decl	%esp
      2d: 00 20                        	addb	%ah, (%eax)
      2f: 80 4e 00 20                  	orb	$0x20, (%esi)
      33: 80 fc 00                     	cmpb	$0x0, %ah
      36: 20 80 28 01 20 80            	andb	%al, -0x7fdffed8(%eax)
      3c: 10 01                        	adcb	%al, (%ecx)
      3e: 20 80 24 01 20 80            	andb	%al, -0x7fdffedc(%eax)
      44: 38 01                        	cmpb	%al, (%ecx)
      46: 20 80 48 01 20 80            	andb	%al, -0x7fdffeb8(%eax)
      4c: a0 01 20 80 ba               	movb	0xba802001, %al
      51: 01 20                        	addl	%esp, (%eax)
      53: 80 5a 02 20                  	sbbb	$0x20, 0x2(%edx)
      57: 80 88 02 20 80 a0 02         	orb	$0x2, -0x5f7fdffe(%eax)
      5e: 20 80 40 03 20 80            	andb	%al, -0x7fdffcc0(%eax)
      64: e0 03                        	loopne	0x69 <$d+0x69>
      66: 20 80 10 04 20 80            	andb	%al, -0x7fdffbf0(%eax)
      6c: 28 04 20                     	subb	%al, (%eax,%eiz)
      6f: 80 dc 04                     	sbbb	$0x4, %ah
      72: 20 80 7c 05 20 80            	andb	%al, -0x7fdffa84(%eax)
      78: aa                           	stosb	%al, %es:(%edi)
      79: 05 20 80 c2 05               	addl	$0x5c28020, %eax        # imm = 0x5C28020
      7e: 20 80 ea 05 20 80            	andb	%al, -0x7fdffa16(%eax)
      84: 8a 06                        	movb	(%esi), %al
      86: 20 80 b8 06 20 80            	andb	%al, -0x7fdff948(%eax)
      8c: d0 06                        	rolb	(%esi)
      8e: 20 80 00 07 20 80            	andb	%al, -0x7fdff900(%eax)
      94: 1e                           	pushl	%ds
      95: 07                           	popl	%es
      96: 20 80 bc 07 20 80            	andb	%al, -0x7fdff844(%eax)
      9c: ea 07 20 80 02 08 20         	ljmpl	$0x2008, $0x2802007     # imm = 0x2008
                                                                        # imm = 0x2802007
      a3: 80 ca 08                     	orb	$0x8, %dl
      a6: 20 80 6a 09 20 80            	andb	%al, -0x7fdff696(%eax)
      ac: 9c                           	pushfl
      ad: 09 20                        	orl	%esp, (%eax)
      af: 80 c6 09                     	addb	$0x9, %dh
      b2: 20 80 b0 01 20 80            	andb	%al, -0x7fdffe50(%eax)
      b8: 6e                           	outsb	(%esi), %dx
      b9: 02 20                        	addb	(%eax), %ah
      bb: 80 82 02 20 80 98 02         	addb	$0x2, -0x677fdffe(%edx)
      c2: 20 80 b4 02 20 80            	andb	%al, -0x7fdffd4c(%eax)
      c8: c8 02 20 80                  	enter	$0x2002, $-0x80         # imm = 0x2002
      cc: dc 02                        	faddl	(%edx)
      ce: 20 80 f0 02 20 80            	andb	%al, -0x7fdffd10(%eax)
      d4: 04 03                        	addb	$0x3, %al
      d6: 20 80 18 03 20 80            	andb	%al, -0x7fdffce8(%eax)
      dc: 2c 03                        	subb	$0x3, %al
      de: 20 80 f4 03 20 80            	andb	%al, -0x7fdffc0c(%eax)
      e4: 08 04 20                     	orb	%al, (%eax,%eiz)
      e7: 80 20 04                     	andb	$0x4, (%eax)
      ea: 20 80 3c 04 20 80            	andb	%al, -0x7fdffbc4(%eax)
      f0: 50                           	pushl	%eax
      f1: 04 20                        	addb	$0x20, %al
      f3: 80 64 04 20 80               	andb	$-0x80, 0x20(%esp,%eax)
      f8: 78 04                        	js	0xfe <$d+0xfe>
      fa: 20 80 8c 04 20 80            	andb	%al, -0x7fdffb74(%eax)
     100: a0 04 20 80 b4               	movb	0xb4802004, %al
     105: 04 20                        	addb	$0x20, %al
     107: 80 c8 04                     	orb	$0x4, %al
     10a: 20 80 90 05 20 80            	andb	%al, -0x7fdffa70(%eax)
     110: a4                           	movsb	(%esi), %es:(%edi)
     111: 05 20 80 ba 05               	addl	$0x5ba8020, %eax        # imm = 0x5BA8020
     116: 20 80 d6 05 20 80            	andb	%al, -0x7fdffa2a(%eax)
     11c: 9e                           	sahf
     11d: 06                           	pushl	%es
     11e: 20 80 b2 06 20 80            	andb	%al, -0x7fdff94e(%eax)
     124: c8 06 20 80                  	enter	$0x2006, $-0x80         # imm = 0x2006
     128: e2 06                        	loop	0x130 <$d+0x130>
     12a: 20 80 10 07 20 80            	andb	%al, -0x7fdff8f0(%eax)
     130: d0 07                        	rolb	(%edi)
     132: 20 80 e4 07 20 80            	andb	%al, -0x7fdff81c(%eax)
     138: fa                           	cli
     139: 07                           	popl	%es
     13a: 20 80 16 08 20 80            	andb	%al, -0x7fdff7ea(%eax)
     140: 2a 08                        	subb	(%eax), %cl
     142: 20 80 3e 08 20 80            	andb	%al, -0x7fdff7c2(%eax)
     148: 52                           	pushl	%edx
     149: 08 20                        	orb	%ah, (%eax)
     14b: 80 66 08 20                  	andb	$0x20, 0x8(%esi)
     14f: 80 7a 08 20                  	cmpb	$0x20, 0x8(%edx)
     153: 80 8e 08 20 80 a2 08         	orb	$0x8, -0x5d7fdff8(%esi)
     15a: 20 80 b6 08 20 80            	andb	%al, -0x7fdff74a(%eax)
     160: 80 09 20                     	orb	$0x20, (%ecx)
     163: 80 96 09 20 80 ae 09         	adcb	$0x9, -0x517fdff7(%esi)
     16a: 20 80 ca 09 20 80            	andb	%al, -0x7fdff636(%eax)
     170: 00 00                        	addb	%al, (%eax)
     172: 20 80 ec 09 20 80            	andb	%al, -0x7fdff614(%eax)
     178: 06                           	pushl	%es
     179: 0a 20                        	orb	(%eax), %ah
     17b: 80 22 0a                     	andb	$0xa, (%edx)
     17e: 20 80 52 0a 20 80            	andb	%al, -0x7fdff5ae(%eax)
     184: 18 0a                        	sbbb	%cl, (%edx)
     186: 20 80 64 0a 20 80            	andb	%al, -0x7fdff59c(%eax)

Disassembly of section .comment:

00000000 <$d>:
       0: 00 48 6f                     	addb	%cl, 0x6f(%eax)
       3: 6d                           	insl	%dx, %es:(%edi)
       4: 65 62 72 65                  	bound	%esi, %gs:0x65(%edx)
       8: 77 20                        	ja	0x2a <$d+0x2a>
       a: 63 6c 61 6e                  	arpl	%bp, 0x6e(%ecx,%eiz,2)
       e: 67 20 76 65                  	andb	%dh, 0x65(%bp)
      12: 72 73                        	jb	0x87 <$d+0x87>
      14: 69 6f 6e 20 31 39 2e         	imull	$0x2e393120, 0x6e(%edi), %ebp # imm = 0x2E393120
      1b: 31 2e                        	xorl	%ebp, (%esi)
      1d: 37                           	aaa
      1e: 00 4c 69 6e                  	addb	%cl, 0x6e(%ecx,%ebp,2)
      22: 6b 65 72 3a                  	imull	$0x3a, 0x72(%ebp), %esp
      26: 20 48 6f                     	andb	%cl, 0x6f(%eax)
      29: 6d                           	insl	%dx, %es:(%edi)
      2a: 65 62 72 65                  	bound	%esi, %gs:0x65(%edx)
      2e: 77 20                        	ja	0x50 <$d+0x50>
      30: 4c                           	decl	%esp
      31: 4c                           	decl	%esp
      32: 44                           	incl	%esp
      33: 20 31                        	andb	%dh, (%ecx)
      35: 39 2e                        	cmpl	%ebp, (%esi)
      37: 31 2e                        	xorl	%ebp, (%esi)
      39: 37                           	aaa
      3a: 00                           	<unknown>

Disassembly of section .riscv.attributes:

00000000 <.riscv.attributes>:
       0: 41                           	incl	%ecx
       1: 33 00                        	xorl	(%eax), %eax
       3: 00 00                        	addb	%al, (%eax)
       5: 72 69                        	jb	0x70 <$d+0x70>
       7: 73 63                        	jae	0x6c <$d+0x6c>
       9: 76 00                        	jbe	0xb <$d+0xb>
       b: 01 29                        	addl	%ebp, (%ecx)
       d: 00 00                        	addb	%al, (%eax)
       f: 00 04 10                     	addb	%al, (%eax,%edx)
      12: 05 72 76 33 32               	addl	$0x32337672, %eax       # imm = 0x32337672
      17: 69 32 70 31 5f 6d            	imull	$0x6d5f3170, (%edx), %esi # imm = 0x6D5F3170
      1d: 32 70 30                     	xorb	0x30(%eax), %dh
      20: 5f                           	popl	%edi
      21: 61                           	popal
      22: 32 70 31                     	xorb	0x31(%eax), %dh
      25: 5f                           	popl	%edi
      26: 63 32                        	arpl	%si, (%edx)
      28: 70 30                        	jo	0x5a <$d+0x5a>
      2a: 5f                           	popl	%edi
      2b: 7a 6d                        	jp	0x9a <$d+0x9a>
      2d: 6d                           	insl	%dx, %es:(%edi)
      2e: 75 6c                        	jne	0x9c <$d+0x9c>
      30: 31 70 30                     	xorl	%esi, 0x30(%eax)
      33: 00                           	<unknown>

Disassembly of section .debug_frame:

00000000 <$d>:
       0: 10 00                        	adcb	%al, (%eax)
       2: 00 00                        	addb	%al, (%eax)
       4: ff ff                        	<unknown>
       6: ff ff                        	<unknown>
       8: 04 00                        	addb	$0x0, %al
       a: 04 00                        	addb	$0x0, %al
       c: 01 7c 01 0c                  	addl	%edi, 0xc(%ecx,%eax)
      10: 02 00                        	addb	(%eax), %al
      12: 00 00                        	addb	%al, (%eax)
      14: 14 00                        	adcb	$0x0, %al
      16: 00 00                        	addb	%al, (%eax)
      18: 00 00                        	addb	%al, (%eax)
      1a: 00 00                        	addb	%al, (%eax)
      1c: 0c 00                        	orb	$0x0, %al
      1e: 20 80 32 00 00 00            	andb	%al, 0x32(%eax)
      24: 4a                           	decl	%edx
      25: 0e                           	pushl	%cs
      26: 10 44 81 01                  	adcb	%al, 0x1(%ecx,%eax,4)
      2a: 88 02                        	movb	%al, (%edx)
      2c: 0c 00                        	orb	$0x0, %al
      2e: 00 00                        	addb	%al, (%eax)
      30: 00 00                        	addb	%al, (%eax)
      32: 00 00                        	addb	%al, (%eax)
      34: 3e 00 20                     	addb	%ah, %ds:(%eax)
      37: 80 10 00                     	adcb	$0x0, (%eax)
      3a: 00 00                        	addb	%al, (%eax)
      3c: 14 00                        	adcb	$0x0, %al
      3e: 00 00                        	addb	%al, (%eax)
      40: 00 00                        	addb	%al, (%eax)
      42: 00 00                        	addb	%al, (%eax)
      44: 4e                           	decl	%esi
      45: 00 20                        	addb	%ah, (%eax)
      47: 80 fa 00                     	cmpb	$0x0, %dl
      4a: 00 00                        	addb	%al, (%eax)
      4c: 42                           	incl	%edx
      4d: 0e                           	pushl	%cs
      4e: 20 44 81 01                  	andb	%al, 0x1(%ecx,%eax,4)
      52: 88 02                        	movb	%al, (%edx)
      54: 2c 00                        	subb	$0x0, %al
      56: 00 00                        	addb	%al, (%eax)
      58: 00 00                        	addb	%al, (%eax)
      5a: 00 00                        	addb	%al, (%eax)
      5c: 48                           	decl	%eax
      5d: 01 20                        	addl	%esp, (%eax)
      5f: 80 82 08 00 00 42 0e         	addb	$0xe, 0x42000008(%edx)
      66: 60                           	pushal
      67: 5a                           	popl	%edx
      68: 81 01 88 02 89 03            	addl	$0x3890288, (%ecx)      # imm = 0x3890288
      6e: 92                           	xchgl	%edx, %eax
      6f: 04 93                        	addb	$-0x6d, %al
      71: 05 94 06 95 07               	addl	$0x7950694, %eax        # imm = 0x7950694
      76: 96                           	xchgl	%esi, %eax
      77: 08 97 09 98 0a 99            	orb	%dl, -0x66f567f7(%edi)
      7d: 0b 9a 0c 9b 0d 00            	orl	0xd9b0c(%edx), %ebx
      83: 00 0c 00                     	addb	%cl, (%eax,%eax)
      86: 00 00                        	addb	%al, (%eax)
      88: 00 00                        	addb	%al, (%eax)
      8a: 00 00                        	addb	%al, (%eax)
      8c: ca 09 20                     	lretl	$0x2009                 # imm = 0x2009
      8f: 80 22 00                     	andb	$0x0, (%edx)
      92: 00 00                        	addb	%al, (%eax)
      94: 0c 00                        	orb	$0x0, %al
		...
      9e: 20 80 0c 00 00 00            	andb	%al, 0xc(%eax)
      a4: 18 00                        	sbbb	%al, (%eax)
      a6: 00 00                        	addb	%al, (%eax)
      a8: 00 00                        	addb	%al, (%eax)
      aa: 00 00                        	addb	%al, (%eax)
      ac: ec                           	inb	%dx, %al
      ad: 09 20                        	orl	%esp, (%eax)
      af: 80 88 00 00 00 42 0e         	orb	$0xe, 0x42000000(%eax)
      b6: 10 46 81                     	adcb	%al, -0x7f(%esi)
      b9: 01 88 02 89 03 00            	addl	%ecx, 0x38902(%eax)
      bf: 00                           	<unknown>

Disassembly of section .debug_line:

00000000 <$d>:
       0: 42                           	incl	%edx
       1: 08 00                        	orb	%al, (%eax)
       3: 00 05 00 04 00 50            	addb	%al, 0x50000400
       9: 00 00                        	addb	%al, (%eax)
       b: 00 01                        	addb	%al, (%ecx)
       d: 01 01                        	addl	%eax, (%ecx)
       f: fb                           	sti
      10: 0e                           	pushl	%cs
      11: 0d 00 01 01 01               	orl	$0x1010100, %eax        # imm = 0x1010100
      16: 01 00                        	addl	%eax, (%eax)
      18: 00 00                        	addb	%al, (%eax)
      1a: 01 00                        	addl	%eax, (%eax)
      1c: 00 01                        	addb	%al, (%ecx)
      1e: 01 01                        	addl	%eax, (%ecx)
      20: 1f                           	popl	%ds
      21: 02 14 00                     	addb	(%eax,%eax), %dl
      24: 00 00                        	addb	%al, (%eax)
      26: 12 00                        	adcb	(%eax), %al
      28: 00 00                        	addb	%al, (%eax)
      2a: 03 01                        	addl	(%ecx), %eax
      2c: 1f                           	popl	%ds
      2d: 02 0f                        	addb	(%edi), %cl
      2f: 05 1e 02 00 00               	addl	$0x21e, %eax            # imm = 0x21E
      34: 00 00                        	addb	%al, (%eax)
      36: 00 dc                        	addb	%bl, %ah
      38: 1c 48                        	sbbb	$0x48, %al
      3a: a0 8a ba d1 17               	movb	0x17d1ba8a, %al
      3f: de 5e 5d                     	ficomps	0x5d(%esi)
      42: 34 f7                        	xorb	$-0x9, %al
      44: f0                           	lock
      45: 9d                           	popfl
      46: 8e 09                        	movw	(%ecx), %cs
      48: 00 00                        	addb	%al, (%eax)
      4a: 00 01                        	addb	%al, (%ecx)
      4c: 05 74 79 dc 94               	addl	$0x94dc7974, %eax       # imm = 0x94DC7974
      51: e5 c0                        	inl	$0xc0, %eax
      53: 42                           	incl	%edx
      54: 99                           	cltd
      55: d1 d0                        	rcll	%eax
      57: 44                           	incl	%esp
      58: af                           	scasl	%es:(%edi), %eax
      59: 12 42 38                     	adcb	0x38(%edx), %al
      5c: 04 00                        	addb	$0x0, %al
      5e: 00 05 02 0c 00 20            	addb	%al, 0x20000c02
      64: 80 1a 05                     	sbbb	$0x5, (%edx)
      67: 15 0a 03 01 09               	adcl	$0x901030a, %eax        # imm = 0x901030A
      6c: 02 00                        	addb	(%eax), %al
      6e: 01 05 05 06 03 00            	addl	%eax, 0x30605
      74: 09 04 00                     	orl	%eax, (%eax,%eax)
      77: 01 05 19 06 03 38            	addl	%eax, 0x38030619
      7d: 09 0c 00                     	orl	%ecx, (%eax,%eax)
      80: 01 05 15 03 48 09            	addl	%eax, 0x9480315
      86: 10 00                        	adcb	%al, (%eax)
      88: 01 05 05 06 03 00            	addl	%eax, 0x30605
      8e: 09 04 00                     	orl	%eax, (%eax,%eax)
      91: 01 03                        	addl	%eax, (%ebx)
      93: 76 09                        	jbe	0x9e <$d+0x9e>
      95: 04 00                        	addb	$0x0, %al
      97: 01 05 01 06 03 0d            	addl	%eax, 0xd030601
      9d: 09 06                        	orl	%eax, (%esi)
      9f: 00 01                        	addb	%al, (%ecx)
      a1: 05 19 0a 03 35               	addl	$0x35030a19, %eax       # imm = 0x35030A19
      a6: 09 02                        	orl	%eax, (%edx)
      a8: 00 01                        	addb	%al, (%ecx)
      aa: 05 00 03 4e 09               	addl	$0x94e0300, %eax        # imm = 0x94E0300
      af: 10 00                        	adcb	%al, (%eax)
      b1: 01 05 22 0a 03 05            	addl	%eax, 0x5030a22
      b7: 09 06                        	orl	%eax, (%esi)
      b9: 00 01                        	addb	%al, (%ecx)
      bb: 05 15 06 03 00               	addl	$0x30615, %eax          # imm = 0x30615
      c0: 09 04 00                     	orl	%eax, (%eax,%eax)
      c3: 01 05 13 03 00 09            	addl	%eax, 0x9000313
      c9: 0e                           	pushl	%cs
      ca: 00 01                        	addb	%al, (%ecx)
      cc: 05 22 03 00 09               	addl	$0x9000322, %eax        # imm = 0x9000322
      d1: 04 00                        	addb	$0x0, %al
      d3: 01 05 15 03 00 09            	addl	%eax, 0x9000315
      d9: 06                           	pushl	%es
      da: 00 01                        	addb	%al, (%ecx)
      dc: 05 22 03 00 09               	addl	$0x9000322, %eax        # imm = 0x9000322
      e1: 06                           	pushl	%es
      e2: 00 01                        	addb	%al, (%ecx)
      e4: 05 15 03 00 09               	addl	$0x9000315, %eax        # imm = 0x9000315
      e9: 06                           	pushl	%es
      ea: 00 01                        	addb	%al, (%ecx)
      ec: 05 22 03 00 09               	addl	$0x9000322, %eax        # imm = 0x9000322
      f1: 06                           	pushl	%es
      f2: 00 01                        	addb	%al, (%ecx)
      f4: 05 15 03 00 09               	addl	$0x9000315, %eax        # imm = 0x9000315
      f9: 06                           	pushl	%es
      fa: 00 01                        	addb	%al, (%ecx)
      fc: 05 22 03 00 09               	addl	$0x9000322, %eax        # imm = 0x9000322
     101: 06                           	pushl	%es
     102: 00 01                        	addb	%al, (%ecx)
     104: 05 15 03 00 09               	addl	$0x9000315, %eax        # imm = 0x9000315
     109: 06                           	pushl	%es
     10a: 00 01                        	addb	%al, (%ecx)
     10c: 05 13 03 00 09               	addl	$0x9000313, %eax        # imm = 0x9000313
     111: 06                           	pushl	%es
     112: 00 01                        	addb	%al, (%ecx)
     114: 05 22 03 00 09               	addl	$0x9000322, %eax        # imm = 0x9000322
     119: 10 00                        	adcb	%al, (%eax)
     11b: 01 05 15 03 00 09            	addl	%eax, 0x9000315
     121: 06                           	pushl	%es
     122: 00 01                        	addb	%al, (%ecx)
     124: 05 22 03 00 09               	addl	$0x9000322, %eax        # imm = 0x9000322
     129: 02 00                        	addb	(%eax), %al
     12b: 01 05 15 03 00 09            	addl	%eax, 0x9000315
     131: 06                           	pushl	%es
     132: 00 01                        	addb	%al, (%ecx)
     134: 05 0b 06 03 01               	addl	$0x103060b, %eax        # imm = 0x103060B
     139: 09 02                        	orl	%eax, (%edx)
     13b: 00 01                        	addb	%al, (%ecx)
     13d: 05 15 03 7f 09               	addl	$0x97f0315, %eax        # imm = 0x97F0315
     142: 02 00                        	addb	(%eax), %al
     144: 01 05 10 03 7e 09            	addl	%eax, 0x97e0310
     14a: 0e                           	pushl	%cs
     14b: 00 01                        	addb	%al, (%ecx)
     14d: 05 13 03 02 09               	addl	$0x9020313, %eax        # imm = 0x9020313
     152: 04 00                        	addb	$0x0, %al
     154: 01 05 09 06 03 00            	addl	%eax, 0x30609
     15a: 09 28                        	orl	%ebp, (%eax)
     15c: 00 01                        	addb	%al, (%ecx)
     15e: 05 13 03 00 09               	addl	$0x9000313, %eax        # imm = 0x9000313
     163: 02 00                        	addb	(%eax), %al
     165: 01 05 19 06 03 2d            	addl	%eax, 0x2d030619
     16b: 09 04 00                     	orl	%eax, (%eax,%eax)
     16e: 01 06                        	addl	%eax, (%esi)
     170: 03 be 7f 09 28 00            	addl	0x28097f(%esi), %edi
     176: 01 03                        	addl	%eax, (%ebx)
     178: c2 00 09                     	retl	$0x900                  # imm = 0x900
     17b: 04 00                        	addb	$0x0, %al
     17d: 01 05 15 06 03 48            	addl	%eax, 0x48030615
     183: 09 10                        	orl	%edx, (%eax)
     185: 00 01                        	addb	%al, (%ecx)
     187: 05 05 06 03 00               	addl	$0x30605, %eax          # imm = 0x30605
     18c: 09 04 00                     	orl	%eax, (%eax,%eax)
     18f: 01 03                        	addl	%eax, (%ebx)
     191: 76 09                        	jbe	0x19c <$d+0x19c>
     193: 04 00                        	addb	$0x0, %al
     195: 01 05 01 06 0b 03            	addl	%eax, 0x30b0601
     19b: 1a 09                        	sbbb	(%ecx), %cl
     19d: 04 00                        	addb	$0x0, %al
     19f: 01 05 00 03 03 09            	addl	%eax, 0x9030300
     1a5: 04 00                        	addb	$0x0, %al
     1a7: 01 05 19 0a 03 25            	addl	%eax, 0x25030a19
     1ad: 09 58 00                     	orl	%ebx, (%eax)
     1b0: 01 05 15 03 48 09            	addl	%eax, 0x9480315
     1b6: 10 00                        	adcb	%al, (%eax)
     1b8: 01 05 1a 06 03 00            	addl	%eax, 0x3061a
     1be: 09 04 00                     	orl	%eax, (%eax,%eax)
     1c1: 01 05 05 03 00 09            	addl	%eax, 0x9000305
     1c7: 02 00                        	addb	(%eax), %al
     1c9: 01 05 22 06 03 0b            	addl	%eax, 0xb030622
     1cf: 09 04 00                     	orl	%eax, (%eax,%eax)
     1d2: 01 05 15 06 03 00            	addl	%eax, 0x30615
     1d8: 09 04 00                     	orl	%eax, (%eax,%eax)
     1db: 01 05 13 03 00 09            	addl	%eax, 0x9000313
     1e1: 06                           	pushl	%es
     1e2: 00 01                        	addb	%al, (%ecx)
     1e4: 05 22 03 00 09               	addl	$0x9000322, %eax        # imm = 0x9000322
     1e9: 04 00                        	addb	$0x0, %al
     1eb: 01 05 15 03 00 09            	addl	%eax, 0x9000315
     1f1: 06                           	pushl	%es
     1f2: 00 01                        	addb	%al, (%ecx)
     1f4: 05 22 03 00 09               	addl	$0x9000322, %eax        # imm = 0x9000322
     1f9: 06                           	pushl	%es
     1fa: 00 01                        	addb	%al, (%ecx)
     1fc: 05 15 03 00 09               	addl	$0x9000315, %eax        # imm = 0x9000315
     201: 06                           	pushl	%es
     202: 00 01                        	addb	%al, (%ecx)
     204: 05 22 03 00 09               	addl	$0x9000322, %eax        # imm = 0x9000322
     209: 06                           	pushl	%es
     20a: 00 01                        	addb	%al, (%ecx)
     20c: 05 15 03 00 09               	addl	$0x9000315, %eax        # imm = 0x9000315
     211: 06                           	pushl	%es
     212: 00 01                        	addb	%al, (%ecx)
     214: 05 22 03 00 09               	addl	$0x9000322, %eax        # imm = 0x9000322
     219: 06                           	pushl	%es
     21a: 00 01                        	addb	%al, (%ecx)
     21c: 05 15 03 00 09               	addl	$0x9000315, %eax        # imm = 0x9000315
     221: 06                           	pushl	%es
     222: 00 01                        	addb	%al, (%ecx)
     224: 05 13 03 00 09               	addl	$0x9000313, %eax        # imm = 0x9000313
     229: 06                           	pushl	%es
     22a: 00 01                        	addb	%al, (%ecx)
     22c: 05 22 03 00 09               	addl	$0x9000322, %eax        # imm = 0x9000322
     231: 10 00                        	adcb	%al, (%eax)
     233: 01 05 15 03 00 09            	addl	%eax, 0x9000315
     239: 06                           	pushl	%es
     23a: 00 01                        	addb	%al, (%ecx)
     23c: 05 22 03 00 09               	addl	$0x9000322, %eax        # imm = 0x9000322
     241: 06                           	pushl	%es
     242: 00 01                        	addb	%al, (%ecx)
     244: 05 15 03 00 09               	addl	$0x9000315, %eax        # imm = 0x9000315
     249: 06                           	pushl	%es
     24a: 00 01                        	addb	%al, (%ecx)
     24c: 05 0b 06 03 01               	addl	$0x103060b, %eax        # imm = 0x103060B
     251: 09 06                        	orl	%eax, (%esi)
     253: 00 01                        	addb	%al, (%ecx)
     255: 05 15 03 7f 09               	addl	$0x97f0315, %eax        # imm = 0x97F0315
     25a: 04 00                        	addb	$0x0, %al
     25c: 01 05 13 06 03 00            	addl	%eax, 0x30613
     262: 09 06                        	orl	%eax, (%esi)
     264: 00 01                        	addb	%al, (%ecx)
     266: 05 10 06 03 7e               	addl	$0x7e030610, %eax       # imm = 0x7E030610
     26b: 09 08                        	orl	%ecx, (%eax)
     26d: 00 01                        	addb	%al, (%ecx)
     26f: 05 13 03 02 09               	addl	$0x9020313, %eax        # imm = 0x9020313
     274: 04 00                        	addb	$0x0, %al
     276: 01 05 19 03 2d 09            	addl	%eax, 0x92d0319
     27c: 24 00                        	andb	$0x0, %al
     27e: 01 06                        	addl	%eax, (%esi)
     280: 03 be 7f 09 28 00            	addl	0x28097f(%esi), %edi
     286: 01 03                        	addl	%eax, (%ebx)
     288: c2 00 09                     	retl	$0x900                  # imm = 0x900
     28b: 06                           	pushl	%es
     28c: 00 01                        	addb	%al, (%ecx)
     28e: 05 15 06 03 48               	addl	$0x48030615, %eax       # imm = 0x48030615
     293: 09 10                        	orl	%edx, (%eax)
     295: 00 01                        	addb	%al, (%ecx)
     297: 05 05 06 03 00               	addl	$0x30605, %eax          # imm = 0x30605
     29c: 09 04 00                     	orl	%eax, (%eax,%eax)
     29f: 01 05 19 06 03 38            	addl	%eax, 0x38030619
     2a5: 09 04 00                     	orl	%eax, (%eax,%eax)
     2a8: 01 05 22 03 53 09            	addl	%eax, 0x9530322
     2ae: a0 00 01 05 15               	movb	0x15050100, %al
     2b3: 06                           	pushl	%es
     2b4: 03 00                        	addl	(%eax), %eax
     2b6: 09 04 00                     	orl	%eax, (%eax,%eax)
     2b9: 01 05 13 03 00 09            	addl	%eax, 0x9000313
     2bf: 06                           	pushl	%es
     2c0: 00 01                        	addb	%al, (%ecx)
     2c2: 05 22 03 00 09               	addl	$0x9000322, %eax        # imm = 0x9000322
     2c7: 04 00                        	addb	$0x0, %al
     2c9: 01 05 15 03 00 09            	addl	%eax, 0x9000315
     2cf: 06                           	pushl	%es
     2d0: 00 01                        	addb	%al, (%ecx)
     2d2: 05 22 03 00 09               	addl	$0x9000322, %eax        # imm = 0x9000322
     2d7: 06                           	pushl	%es
     2d8: 00 01                        	addb	%al, (%ecx)
     2da: 05 15 03 00 09               	addl	$0x9000315, %eax        # imm = 0x9000315
     2df: 06                           	pushl	%es
     2e0: 00 01                        	addb	%al, (%ecx)
     2e2: 05 22 03 00 09               	addl	$0x9000322, %eax        # imm = 0x9000322
     2e7: 06                           	pushl	%es
     2e8: 00 01                        	addb	%al, (%ecx)
     2ea: 05 15 03 00 09               	addl	$0x9000315, %eax        # imm = 0x9000315
     2ef: 06                           	pushl	%es
     2f0: 00 01                        	addb	%al, (%ecx)
     2f2: 05 22 03 00 09               	addl	$0x9000322, %eax        # imm = 0x9000322
     2f7: 06                           	pushl	%es
     2f8: 00 01                        	addb	%al, (%ecx)
     2fa: 05 15 03 00 09               	addl	$0x9000315, %eax        # imm = 0x9000315
     2ff: 06                           	pushl	%es
     300: 00 01                        	addb	%al, (%ecx)
     302: 05 13 03 00 09               	addl	$0x9000313, %eax        # imm = 0x9000313
     307: 06                           	pushl	%es
     308: 00 01                        	addb	%al, (%ecx)
     30a: 05 22 03 00 09               	addl	$0x9000322, %eax        # imm = 0x9000322
     30f: 10 00                        	adcb	%al, (%eax)
     311: 01 05 15 03 00 09            	addl	%eax, 0x9000315
     317: 06                           	pushl	%es
     318: 00 01                        	addb	%al, (%ecx)
     31a: 05 22 03 00 09               	addl	$0x9000322, %eax        # imm = 0x9000322
     31f: 06                           	pushl	%es
     320: 00 01                        	addb	%al, (%ecx)
     322: 05 15 03 00 09               	addl	$0x9000315, %eax        # imm = 0x9000315
     327: 06                           	pushl	%es
     328: 00 01                        	addb	%al, (%ecx)
     32a: 05 0b 06 03 01               	addl	$0x103060b, %eax        # imm = 0x103060B
     32f: 09 06                        	orl	%eax, (%esi)
     331: 00 01                        	addb	%al, (%ecx)
     333: 05 15 03 7f 09               	addl	$0x97f0315, %eax        # imm = 0x97F0315
     338: 04 00                        	addb	$0x0, %al
     33a: 01 05 13 06 03 00            	addl	%eax, 0x30613
     340: 09 06                        	orl	%eax, (%esi)
     342: 00 01                        	addb	%al, (%ecx)
     344: 05 10 06 03 7e               	addl	$0x7e030610, %eax       # imm = 0x7E030610
     349: 09 08                        	orl	%ecx, (%eax)
     34b: 00 01                        	addb	%al, (%ecx)
     34d: 05 13 03 02 09               	addl	$0x9020313, %eax        # imm = 0x9020313
     352: 04 00                        	addb	$0x0, %al
     354: 01 05 19 03 2d 09            	addl	%eax, 0x92d0319
     35a: 24 00                        	andb	$0x0, %al
     35c: 01 06                        	addl	%eax, (%esi)
     35e: 03 be 7f 09 28 00            	addl	0x28097f(%esi), %edi
     364: 01 03                        	addl	%eax, (%ebx)
     366: c2 00 09                     	retl	$0x900                  # imm = 0x900
     369: 08 00                        	orb	%al, (%eax)
     36b: 01 05 15 06 03 48            	addl	%eax, 0x48030615
     371: 09 10                        	orl	%edx, (%eax)
     373: 00 01                        	addb	%al, (%ecx)
     375: 05 05 06 03 00               	addl	$0x30605, %eax          # imm = 0x30605
     37a: 09 04 00                     	orl	%eax, (%eax,%eax)
     37d: 01 05 19 06 03 38            	addl	%eax, 0x38030619
     383: 09 04 00                     	orl	%eax, (%eax,%eax)
     386: 01 05 22 03 53 09            	addl	%eax, 0x9530322
     38c: b4 00                        	movb	$0x0, %ah
     38e: 01 05 15 06 03 00            	addl	%eax, 0x30615
     394: 09 04 00                     	orl	%eax, (%eax,%eax)
     397: 01 05 13 03 00 09            	addl	%eax, 0x9000313
     39d: 06                           	pushl	%es
     39e: 00 01                        	addb	%al, (%ecx)
     3a0: 05 22 03 00 09               	addl	$0x9000322, %eax        # imm = 0x9000322
     3a5: 04 00                        	addb	$0x0, %al
     3a7: 01 05 15 03 00 09            	addl	%eax, 0x9000315
     3ad: 06                           	pushl	%es
     3ae: 00 01                        	addb	%al, (%ecx)
     3b0: 05 22 03 00 09               	addl	$0x9000322, %eax        # imm = 0x9000322
     3b5: 06                           	pushl	%es
     3b6: 00 01                        	addb	%al, (%ecx)
     3b8: 05 15 03 00 09               	addl	$0x9000315, %eax        # imm = 0x9000315
     3bd: 06                           	pushl	%es
     3be: 00 01                        	addb	%al, (%ecx)
     3c0: 05 22 03 00 09               	addl	$0x9000322, %eax        # imm = 0x9000322
     3c5: 06                           	pushl	%es
     3c6: 00 01                        	addb	%al, (%ecx)
     3c8: 05 15 03 00 09               	addl	$0x9000315, %eax        # imm = 0x9000315
     3cd: 06                           	pushl	%es
     3ce: 00 01                        	addb	%al, (%ecx)
     3d0: 05 22 03 00 09               	addl	$0x9000322, %eax        # imm = 0x9000322
     3d5: 06                           	pushl	%es
     3d6: 00 01                        	addb	%al, (%ecx)
     3d8: 05 15 03 00 09               	addl	$0x9000315, %eax        # imm = 0x9000315
     3dd: 06                           	pushl	%es
     3de: 00 01                        	addb	%al, (%ecx)
     3e0: 05 13 03 00 09               	addl	$0x9000313, %eax        # imm = 0x9000313
     3e5: 06                           	pushl	%es
     3e6: 00 01                        	addb	%al, (%ecx)
     3e8: 05 22 03 00 09               	addl	$0x9000322, %eax        # imm = 0x9000322
     3ed: 10 00                        	adcb	%al, (%eax)
     3ef: 01 05 15 03 00 09            	addl	%eax, 0x9000315
     3f5: 06                           	pushl	%es
     3f6: 00 01                        	addb	%al, (%ecx)
     3f8: 05 22 03 00 09               	addl	$0x9000322, %eax        # imm = 0x9000322
     3fd: 06                           	pushl	%es
     3fe: 00 01                        	addb	%al, (%ecx)
     400: 05 15 03 00 09               	addl	$0x9000315, %eax        # imm = 0x9000315
     405: 06                           	pushl	%es
     406: 00 01                        	addb	%al, (%ecx)
     408: 05 0b 06 03 01               	addl	$0x103060b, %eax        # imm = 0x103060B
     40d: 09 06                        	orl	%eax, (%esi)
     40f: 00 01                        	addb	%al, (%ecx)
     411: 05 15 03 7f 09               	addl	$0x97f0315, %eax        # imm = 0x97F0315
     416: 04 00                        	addb	$0x0, %al
     418: 01 05 13 06 03 00            	addl	%eax, 0x30613
     41e: 09 06                        	orl	%eax, (%esi)
     420: 00 01                        	addb	%al, (%ecx)
     422: 05 10 06 03 7e               	addl	$0x7e030610, %eax       # imm = 0x7E030610
     427: 09 08                        	orl	%ecx, (%eax)
     429: 00 01                        	addb	%al, (%ecx)
     42b: 05 13 03 02 09               	addl	$0x9020313, %eax        # imm = 0x9020313
     430: 04 00                        	addb	$0x0, %al
     432: 01 05 19 03 2d 09            	addl	%eax, 0x92d0319
     438: 24 00                        	andb	$0x0, %al
     43a: 01 06                        	addl	%eax, (%esi)
     43c: 03 be 7f 09 28 00            	addl	0x28097f(%esi), %edi
     442: 01 03                        	addl	%eax, (%ebx)
     444: c2 00 09                     	retl	$0x900                  # imm = 0x900
     447: 06                           	pushl	%es
     448: 00 01                        	addb	%al, (%ecx)
     44a: 05 15 06 03 48               	addl	$0x48030615, %eax       # imm = 0x48030615
     44f: 09 10                        	orl	%edx, (%eax)
     451: 00 01                        	addb	%al, (%ecx)
     453: 05 05 06 03 00               	addl	$0x30605, %eax          # imm = 0x30605
     458: 09 04 00                     	orl	%eax, (%eax,%eax)
     45b: 01 05 19 06 03 38            	addl	%eax, 0x38030619
     461: 09 04 00                     	orl	%eax, (%eax,%eax)
     464: 01 05 22 03 53 09            	addl	%eax, 0x9530322
     46a: 28 00                        	subb	%al, (%eax)
     46c: 01 05 15 06 03 00            	addl	%eax, 0x30615
     472: 09 04 00                     	orl	%eax, (%eax,%eax)
     475: 01 05 13 03 00 09            	addl	%eax, 0x9000313
     47b: 06                           	pushl	%es
     47c: 00 01                        	addb	%al, (%ecx)
     47e: 05 22 03 00 09               	addl	$0x9000322, %eax        # imm = 0x9000322
     483: 04 00                        	addb	$0x0, %al
     485: 01 05 15 03 00 09            	addl	%eax, 0x9000315
     48b: 06                           	pushl	%es
     48c: 00 01                        	addb	%al, (%ecx)
     48e: 05 22 03 00 09               	addl	$0x9000322, %eax        # imm = 0x9000322
     493: 06                           	pushl	%es
     494: 00 01                        	addb	%al, (%ecx)
     496: 05 15 03 00 09               	addl	$0x9000315, %eax        # imm = 0x9000315
     49b: 06                           	pushl	%es
     49c: 00 01                        	addb	%al, (%ecx)
     49e: 05 22 03 00 09               	addl	$0x9000322, %eax        # imm = 0x9000322
     4a3: 06                           	pushl	%es
     4a4: 00 01                        	addb	%al, (%ecx)
     4a6: 05 15 03 00 09               	addl	$0x9000315, %eax        # imm = 0x9000315
     4ab: 06                           	pushl	%es
     4ac: 00 01                        	addb	%al, (%ecx)
     4ae: 05 22 03 00 09               	addl	$0x9000322, %eax        # imm = 0x9000322
     4b3: 06                           	pushl	%es
     4b4: 00 01                        	addb	%al, (%ecx)
     4b6: 05 15 03 00 09               	addl	$0x9000315, %eax        # imm = 0x9000315
     4bb: 06                           	pushl	%es
     4bc: 00 01                        	addb	%al, (%ecx)
     4be: 05 13 03 00 09               	addl	$0x9000313, %eax        # imm = 0x9000313
     4c3: 06                           	pushl	%es
     4c4: 00 01                        	addb	%al, (%ecx)
     4c6: 05 22 03 00 09               	addl	$0x9000322, %eax        # imm = 0x9000322
     4cb: 10 00                        	adcb	%al, (%eax)
     4cd: 01 05 15 03 00 09            	addl	%eax, 0x9000315
     4d3: 06                           	pushl	%es
     4d4: 00 01                        	addb	%al, (%ecx)
     4d6: 05 22 03 00 09               	addl	$0x9000322, %eax        # imm = 0x9000322
     4db: 06                           	pushl	%es
     4dc: 00 01                        	addb	%al, (%ecx)
     4de: 05 15 03 00 09               	addl	$0x9000315, %eax        # imm = 0x9000315
     4e3: 06                           	pushl	%es
     4e4: 00 01                        	addb	%al, (%ecx)
     4e6: 05 0b 06 03 01               	addl	$0x103060b, %eax        # imm = 0x103060B
     4eb: 09 06                        	orl	%eax, (%esi)
     4ed: 00 01                        	addb	%al, (%ecx)
     4ef: 05 15 03 7f 09               	addl	$0x97f0315, %eax        # imm = 0x97F0315
     4f4: 04 00                        	addb	$0x0, %al
     4f6: 01 05 13 06 03 00            	addl	%eax, 0x30613
     4fc: 09 06                        	orl	%eax, (%esi)
     4fe: 00 01                        	addb	%al, (%ecx)
     500: 05 10 06 03 7e               	addl	$0x7e030610, %eax       # imm = 0x7E030610
     505: 09 08                        	orl	%ecx, (%eax)
     507: 00 01                        	addb	%al, (%ecx)
     509: 05 13 03 02 09               	addl	$0x9020313, %eax        # imm = 0x9020313
     50e: 04 00                        	addb	$0x0, %al
     510: 01 05 19 03 2d 09            	addl	%eax, 0x92d0319
     516: 24 00                        	andb	$0x0, %al
     518: 01 06                        	addl	%eax, (%esi)
     51a: 03 be 7f 09 28 00            	addl	0x28097f(%esi), %edi
     520: 01 03                        	addl	%eax, (%ebx)
     522: c2 00 09                     	retl	$0x900                  # imm = 0x900
     525: 06                           	pushl	%es
     526: 00 01                        	addb	%al, (%ecx)
     528: 05 15 06 03 48               	addl	$0x48030615, %eax       # imm = 0x48030615
     52d: 09 10                        	orl	%edx, (%eax)
     52f: 00 01                        	addb	%al, (%ecx)
     531: 05 05 06 03 00               	addl	$0x30605, %eax          # imm = 0x30605
     536: 09 04 00                     	orl	%eax, (%eax,%eax)
     539: 01 05 19 06 03 38            	addl	%eax, 0x38030619
     53f: 09 04 00                     	orl	%eax, (%eax,%eax)
     542: 01 05 05 03 6f 09            	addl	%eax, 0x96f0305
     548: 12 00                        	adcb	(%eax), %al
     54a: 01 06                        	addl	%eax, (%esi)
     54c: 03 4f 09                     	addl	0x9(%edi), %ecx
     54f: 18 00                        	sbbb	%al, (%eax)
     551: 01 05 19 06 03 c2            	addl	%eax, -0x3dfcf9e7
     557: 00 09                        	addb	%cl, (%ecx)
     559: 06                           	pushl	%es
     55a: 00 01                        	addb	%al, (%ecx)
     55c: 05 15 03 48 09               	addl	$0x9480315, %eax        # imm = 0x9480315
     561: 10 00                        	adcb	%al, (%eax)
     563: 01 05 1a 06 03 00            	addl	%eax, 0x3061a
     569: 09 04 00                     	orl	%eax, (%eax,%eax)
     56c: 01 05 05 03 00 09            	addl	%eax, 0x9000305
     572: 02 00                        	addb	(%eax), %al
     574: 01 05 22 06 03 0b            	addl	%eax, 0xb030622
     57a: 09 08                        	orl	%ecx, (%eax)
     57c: 00 01                        	addb	%al, (%ecx)
     57e: 05 15 06 03 00               	addl	$0x30615, %eax          # imm = 0x30615
     583: 09 04 00                     	orl	%eax, (%eax,%eax)
     586: 01 05 13 03 00 09            	addl	%eax, 0x9000313
     58c: 06                           	pushl	%es
     58d: 00 01                        	addb	%al, (%ecx)
     58f: 05 22 03 00 09               	addl	$0x9000322, %eax        # imm = 0x9000322
     594: 04 00                        	addb	$0x0, %al
     596: 01 05 15 03 00 09            	addl	%eax, 0x9000315
     59c: 06                           	pushl	%es
     59d: 00 01                        	addb	%al, (%ecx)
     59f: 05 22 03 00 09               	addl	$0x9000322, %eax        # imm = 0x9000322
     5a4: 06                           	pushl	%es
     5a5: 00 01                        	addb	%al, (%ecx)
     5a7: 05 15 03 00 09               	addl	$0x9000315, %eax        # imm = 0x9000315
     5ac: 06                           	pushl	%es
     5ad: 00 01                        	addb	%al, (%ecx)
     5af: 05 22 03 00 09               	addl	$0x9000322, %eax        # imm = 0x9000322
     5b4: 06                           	pushl	%es
     5b5: 00 01                        	addb	%al, (%ecx)
     5b7: 05 15 03 00 09               	addl	$0x9000315, %eax        # imm = 0x9000315
     5bc: 06                           	pushl	%es
     5bd: 00 01                        	addb	%al, (%ecx)
     5bf: 05 22 03 00 09               	addl	$0x9000322, %eax        # imm = 0x9000322
     5c4: 06                           	pushl	%es
     5c5: 00 01                        	addb	%al, (%ecx)
     5c7: 05 15 03 00 09               	addl	$0x9000315, %eax        # imm = 0x9000315
     5cc: 06                           	pushl	%es
     5cd: 00 01                        	addb	%al, (%ecx)
     5cf: 05 13 03 00 09               	addl	$0x9000313, %eax        # imm = 0x9000313
     5d4: 06                           	pushl	%es
     5d5: 00 01                        	addb	%al, (%ecx)
     5d7: 05 22 03 00 09               	addl	$0x9000322, %eax        # imm = 0x9000322
     5dc: 10 00                        	adcb	%al, (%eax)
     5de: 01 05 15 03 00 09            	addl	%eax, 0x9000315
     5e4: 06                           	pushl	%es
     5e5: 00 01                        	addb	%al, (%ecx)
     5e7: 05 22 03 00 09               	addl	$0x9000322, %eax        # imm = 0x9000322
     5ec: 06                           	pushl	%es
     5ed: 00 01                        	addb	%al, (%ecx)
     5ef: 05 15 03 00 09               	addl	$0x9000315, %eax        # imm = 0x9000315
     5f4: 06                           	pushl	%es
     5f5: 00 01                        	addb	%al, (%ecx)
     5f7: 05 0b 06 03 01               	addl	$0x103060b, %eax        # imm = 0x103060B
     5fc: 09 06                        	orl	%eax, (%esi)
     5fe: 00 01                        	addb	%al, (%ecx)
     600: 05 15 03 7f 09               	addl	$0x97f0315, %eax        # imm = 0x97F0315
     605: 02 00                        	addb	(%eax), %al
     607: 01 05 13 06 03 00            	addl	%eax, 0x30613
     60d: 09 06                        	orl	%eax, (%esi)
     60f: 00 01                        	addb	%al, (%ecx)
     611: 05 10 06 03 7e               	addl	$0x7e030610, %eax       # imm = 0x7E030610
     616: 09 04 00                     	orl	%eax, (%eax,%eax)
     619: 01 05 13 03 02 09            	addl	%eax, 0x9020313
     61f: 04 00                        	addb	$0x0, %al
     621: 01 05 19 03 2d 09            	addl	%eax, 0x92d0319
     627: 28 00                        	subb	%al, (%eax)
     629: 01 06                        	addl	%eax, (%esi)
     62b: 03 be 7f 09 28 00            	addl	0x28097f(%esi), %edi
     631: 01 03                        	addl	%eax, (%ebx)
     633: c2 00 09                     	retl	$0x900                  # imm = 0x900
     636: 06                           	pushl	%es
     637: 00 01                        	addb	%al, (%ecx)
     639: 05 15 06 03 48               	addl	$0x48030615, %eax       # imm = 0x48030615
     63e: 09 10                        	orl	%edx, (%eax)
     640: 00 01                        	addb	%al, (%ecx)
     642: 05 05 06 03 00               	addl	$0x30605, %eax          # imm = 0x30605
     647: 09 04 00                     	orl	%eax, (%eax,%eax)
     64a: 01 05 19 06 03 38            	addl	%eax, 0x38030619
     650: 09 04 00                     	orl	%eax, (%eax,%eax)
     653: 01 05 22 03 53 09            	addl	%eax, 0x9530322
     659: c8 00 01 05                  	enter	$0x100, $0x5            # imm = 0x100
     65d: 15 06 03 00 09               	adcl	$0x9000306, %eax        # imm = 0x9000306
     662: 04 00                        	addb	$0x0, %al
     664: 01 05 13 03 00 09            	addl	%eax, 0x9000313
     66a: 06                           	pushl	%es
     66b: 00 01                        	addb	%al, (%ecx)
     66d: 05 22 03 00 09               	addl	$0x9000322, %eax        # imm = 0x9000322
     672: 04 00                        	addb	$0x0, %al
     674: 01 05 15 03 00 09            	addl	%eax, 0x9000315
     67a: 06                           	pushl	%es
     67b: 00 01                        	addb	%al, (%ecx)
     67d: 05 22 03 00 09               	addl	$0x9000322, %eax        # imm = 0x9000322
     682: 06                           	pushl	%es
     683: 00 01                        	addb	%al, (%ecx)
     685: 05 15 03 00 09               	addl	$0x9000315, %eax        # imm = 0x9000315
     68a: 06                           	pushl	%es
     68b: 00 01                        	addb	%al, (%ecx)
     68d: 05 22 03 00 09               	addl	$0x9000322, %eax        # imm = 0x9000322
     692: 06                           	pushl	%es
     693: 00 01                        	addb	%al, (%ecx)
     695: 05 15 03 00 09               	addl	$0x9000315, %eax        # imm = 0x9000315
     69a: 06                           	pushl	%es
     69b: 00 01                        	addb	%al, (%ecx)
     69d: 05 22 03 00 09               	addl	$0x9000322, %eax        # imm = 0x9000322
     6a2: 06                           	pushl	%es
     6a3: 00 01                        	addb	%al, (%ecx)
     6a5: 05 15 03 00 09               	addl	$0x9000315, %eax        # imm = 0x9000315
     6aa: 06                           	pushl	%es
     6ab: 00 01                        	addb	%al, (%ecx)
     6ad: 05 13 03 00 09               	addl	$0x9000313, %eax        # imm = 0x9000313
     6b2: 06                           	pushl	%es
     6b3: 00 01                        	addb	%al, (%ecx)
     6b5: 05 22 03 00 09               	addl	$0x9000322, %eax        # imm = 0x9000322
     6ba: 10 00                        	adcb	%al, (%eax)
     6bc: 01 05 15 03 00 09            	addl	%eax, 0x9000315
     6c2: 06                           	pushl	%es
     6c3: 00 01                        	addb	%al, (%ecx)
     6c5: 05 22 03 00 09               	addl	$0x9000322, %eax        # imm = 0x9000322
     6ca: 06                           	pushl	%es
     6cb: 00 01                        	addb	%al, (%ecx)
     6cd: 05 15 03 00 09               	addl	$0x9000315, %eax        # imm = 0x9000315
     6d2: 06                           	pushl	%es
     6d3: 00 01                        	addb	%al, (%ecx)
     6d5: 05 0b 06 03 01               	addl	$0x103060b, %eax        # imm = 0x103060B
     6da: 09 06                        	orl	%eax, (%esi)
     6dc: 00 01                        	addb	%al, (%ecx)
     6de: 05 15 03 7f 09               	addl	$0x97f0315, %eax        # imm = 0x97F0315
     6e3: 04 00                        	addb	$0x0, %al
     6e5: 01 05 13 06 03 00            	addl	%eax, 0x30613
     6eb: 09 06                        	orl	%eax, (%esi)
     6ed: 00 01                        	addb	%al, (%ecx)
     6ef: 05 10 06 03 7e               	addl	$0x7e030610, %eax       # imm = 0x7E030610
     6f4: 09 04 00                     	orl	%eax, (%eax,%eax)
     6f7: 01 05 13 03 02 09            	addl	%eax, 0x9020313
     6fd: 04 00                        	addb	$0x0, %al
     6ff: 01 05 19 03 2d 09            	addl	%eax, 0x92d0319
     705: 28 00                        	subb	%al, (%eax)
     707: 01 06                        	addl	%eax, (%esi)
     709: 03 be 7f 09 2c 00            	addl	0x2c097f(%esi), %edi
     70f: 01 03                        	addl	%eax, (%ebx)
     711: c2 00 09                     	retl	$0x900                  # imm = 0x900
     714: 06                           	pushl	%es
     715: 00 01                        	addb	%al, (%ecx)
     717: 05 15 06 03 48               	addl	$0x48030615, %eax       # imm = 0x48030615
     71c: 09 12                        	orl	%edx, (%edx)
     71e: 00 01                        	addb	%al, (%ecx)
     720: 05 05 06 03 00               	addl	$0x30605, %eax          # imm = 0x30605
     725: 09 04 00                     	orl	%eax, (%eax,%eax)
     728: 01 03                        	addl	%eax, (%ebx)
     72a: 76 09                        	jbe	0x735 <$d+0x735>
     72c: 04 00                        	addb	$0x0, %al
     72e: 01 05 19 06 03 c2            	addl	%eax, -0x3dfcf9e7
     734: 00 09                        	addb	%cl, (%ecx)
     736: 10 00                        	adcb	%al, (%eax)
     738: 01 05 1d 0a 03 04            	addl	%eax, 0x4030a1d
     73e: 09 04 00                     	orl	%eax, (%eax,%eax)
     741: 01 05 05 06 03 00            	addl	%eax, 0x30605
     747: 09 10                        	orl	%edx, (%eax)
     749: 00 01                        	addb	%al, (%ecx)
     74b: 03 ba 7f 09 04 00            	addl	0x4097f(%edx), %edi
     751: 01 05 0c 06 03 c7            	addl	%eax, -0x38fcf9f4
     757: 00 09                        	addb	%cl, (%ecx)
     759: 02 00                        	addb	(%eax), %al
     75b: 01 05 1d 03 7f 09            	addl	%eax, 0x97f031d
     761: 04 00                        	addb	$0x0, %al
     763: 01 05 2b 06 03 00            	addl	%eax, 0x3062b
     769: 09 02                        	orl	%eax, (%edx)
     76b: 00 01                        	addb	%al, (%ecx)
     76d: 05 05 03 00 09               	addl	$0x9000305, %eax        # imm = 0x9000305
     772: 02 00                        	addb	(%eax), %al
     774: 01 05 01 06 03 03            	addl	%eax, 0x3030601
     77a: 09 02                        	orl	%eax, (%edx)
     77c: 00 01                        	addb	%al, (%ecx)
     77e: 09 02                        	orl	%eax, (%edx)
     780: 00 00                        	addb	%al, (%eax)
     782: 01 01                        	addl	%eax, (%ecx)
     784: 04 00                        	addb	$0x0, %al
     786: 00 05 02 ec 09 20            	addb	%al, 0x2009ec02
     78c: 80 03 d6                     	addb	$-0x2a, (%ebx)
     78f: 00 01                        	addb	%al, (%ecx)
     791: 05 19 0a 03 6b               	addl	$0x6b030a19, %eax       # imm = 0x6B030A19
     796: 09 1a                        	orl	%ebx, (%edx)
     798: 00 01                        	addb	%al, (%ecx)
     79a: 05 15 03 48 09               	addl	$0x9480315, %eax        # imm = 0x9480315
     79f: 12 00                        	adcb	(%eax), %al
     7a1: 01 05 1a 06 03 00            	addl	%eax, 0x3061a
     7a7: 09 04 00                     	orl	%eax, (%eax,%eax)
     7aa: 01 05 05 03 00 09            	addl	%eax, 0x9000305
     7b0: 02 00                        	addb	(%eax), %al
     7b2: 01 05 1d 06 03 3c            	addl	%eax, 0x3c03061d
     7b8: 09 04 00                     	orl	%eax, (%eax,%eax)
     7bb: 01 05 05 06 03 00            	addl	%eax, 0x30605
     7c1: 09 10                        	orl	%edx, (%eax)
     7c3: 00 01                        	addb	%al, (%ecx)
     7c5: 03 ba 7f 09 04 00            	addl	0x4097f(%edx), %edi
     7cb: 01 05 0c 06 03 c7            	addl	%eax, -0x38fcf9f4
     7d1: 00 09                        	addb	%cl, (%ecx)
     7d3: 02 00                        	addb	(%eax), %al
     7d5: 01 05 1d 03 7f 09            	addl	%eax, 0x97f031d
     7db: 04 00                        	addb	$0x0, %al
     7dd: 01 05 2b 06 03 00            	addl	%eax, 0x3062b
     7e3: 09 02                        	orl	%eax, (%edx)
     7e5: 00 01                        	addb	%al, (%ecx)
     7e7: 05 05 03 00 09               	addl	$0x9000305, %eax        # imm = 0x9000305
     7ec: 02 00                        	addb	(%eax), %al
     7ee: 01 03                        	addl	%eax, (%ebx)
     7f0: ba 7f 09 02 00               	movl	$0x2097f, %edx          # imm = 0x2097F
     7f5: 01 05 19 06 03 c2            	addl	%eax, -0x3dfcf9e7
     7fb: 00 09                        	addb	%cl, (%ecx)
     7fd: 10 00                        	adcb	%al, (%eax)
     7ff: 01 05 15 03 19 09            	addl	%eax, 0x9190315
     805: 12 00                        	adcb	(%eax), %al
     807: 01 05 1a 06 03 00            	addl	%eax, 0x3061a
     80d: 09 04 00                     	orl	%eax, (%eax,%eax)
     810: 01 05 05 03 00 09            	addl	%eax, 0x9000305
     816: 02 00                        	addb	(%eax), %al
     818: 01 05 09 06 03 05            	addl	%eax, 0x5030609
     81e: 09 04 00                     	orl	%eax, (%eax,%eax)
     821: 01 05 05 03 7f 09            	addl	%eax, 0x97f0305
     827: 04 00                        	addb	$0x0, %al
     829: 01 09                        	addl	%ecx, (%ecx)
     82b: 02 00                        	addb	(%eax), %al
     82d: 00 01                        	addb	%al, (%ecx)
     82f: 01 04 00                     	addl	%eax, (%eax,%eax)
     832: 05 05 0a 00 05               	addl	$0x5000a05, %eax        # imm = 0x5000A05
     837: 02 00                        	addb	(%eax), %al
     839: 00 20                        	addb	%ah, (%eax)
     83b: 80 03 cd                     	addb	$-0x33, (%ebx)
     83e: 00 01                        	addb	%al, (%ecx)
     840: 09 0c 00                     	orl	%ecx, (%eax,%eax)
     843: 00 01                        	addb	%al, (%ecx)
     845: 01                           	<unknown>

Disassembly of section .debug_line_str:

00000000 <.debug_line_str>:
       0: 6b 65 72 6e                  	imull	$0x6e, 0x72(%ebp), %esp
       4: 65 6c                        	insb	%dx, %es:(%edi)
       6: 2e 63 00                     	arpl	%ax, %cs:(%eax)
       9: 6b 65 72 6e                  	imull	$0x6e, 0x72(%ebp), %esp
       d: 65 6c                        	insb	%dx, %es:(%edi)
       f: 2e 68 00 2e 00 2f            	pushl	$0x2f002e00             # imm = 0x2F002E00

00000014 <$d>:
      14: 2f                           	das
      15: 55                           	pushl	%ebp
      16: 73 65                        	jae	0x7d <$d+0x7d>
      18: 72 73                        	jb	0x8d <$d+0x8d>
      1a: 2f                           	das
      1b: 73 68                        	jae	0x85 <$d+0x85>
      1d: 69 6b 68 61 72 6b 6f         	imull	$0x6f6b7261, 0x68(%ebx), %ebp # imm = 0x6F6B7261
      24: 68 6c 69 2f 63               	pushl	$0x632f696c             # imm = 0x632F696C
      29: 6f                           	outsl	(%esi), %dx
      2a: 64 65 2f                     	das
      2d: 74 68                        	je	0x97 <$d+0x97>
      2f: 6f                           	outsl	(%esi), %dx
      30: 75 73                        	jne	0xa5 <$d+0xa5>
      32: 61                           	popal
      33: 6e                           	outsb	(%esi), %dx
      34: 64 2d 6c 69 6e 65            	subl	$0x656e696c, %eax       # imm = 0x656E696C
      3a: 2d                           	<unknown>
      3b: 6f                           	outsl	(%esi), %dx
      3c: 73 00                        	jae	0x3e <$d+0x3e>

Disassembly of section .symtab:

00000000 <.symtab>:
		...
      10: 01 00                        	addl	%eax, (%eax)
		...
      1a: 00 00                        	addb	%al, (%eax)
      1c: 04 00                        	addb	$0x0, %al
      1e: f1                           	<unknown>
      1f: ff 0a                        	decl	(%edx)
      21: 00 00                        	addb	%al, (%eax)
      23: 00 0c 00                     	addb	%cl, (%eax,%eax)
      26: 20 80 00 00 00 00            	andb	%al, (%eax)
      2c: 00 00                        	addb	%al, (%eax)
      2e: 01 00                        	addl	%eax, (%eax)
      30: 0d 00 00 00 00               	orl	$0x0, %eax
      35: 00 20                        	addb	%ah, (%eax)
      37: 80 00 00                     	addb	$0x0, (%eax)
      3a: 00 00                        	addb	%al, (%eax)
      3c: 00 00                        	addb	%al, (%eax)
      3e: 01 00                        	addl	%eax, (%eax)
      40: 10 00                        	adcb	%al, (%eax)
      42: 00 00                        	addb	%al, (%eax)
      44: c3                           	retl
      45: 0a 20                        	orb	(%eax), %ah
      47: 80 00 00                     	addb	$0x0, (%eax)
      4a: 00 00                        	addb	%al, (%eax)
      4c: 00 00                        	addb	%al, (%eax)
      4e: 02 00                        	addb	(%eax), %al
      50: 13 00                        	adcl	(%eax), %eax
		...
      5e: 04 00                        	addb	$0x0, %al
      60: 16                           	pushl	%ss
		...
      6d: 00 05 00 19 00 00            	addb	%al, 0x1900
		...
      7b: 00 00                        	addb	%al, (%eax)
      7d: 00 06                        	addb	%al, (%esi)
      7f: 00 1c 00                     	addb	%bl, (%eax,%eax)
		...
      8e: 07                           	popl	%es
      8f: 00 1f                        	addb	%bl, (%edi)
		...
      9d: 00 08                        	addb	%cl, (%eax)
      9f: 00 22                        	addb	%ah, (%edx)
      a1: 00 00                        	addb	%al, (%eax)
      a3: 00 88 00 00 00 00            	addb	%cl, (%eax)
      a9: 00 00                        	addb	%al, (%eax)
      ab: 00 00                        	addb	%al, (%eax)
      ad: 00 09                        	addb	%cl, (%ecx)
      af: 00 25 00 00 00 00            	addb	%ah, 0x0
		...
      bd: 00 0a                        	addb	%cl, (%edx)
      bf: 00 28                        	addb	%ch, (%eax)
		...
      cd: 00 0b                        	addb	%cl, (%ebx)
      cf: 00 2b                        	addb	%ch, (%ebx)
		...
      dd: 00 f1                        	addb	%dh, %cl
      df: ff 2e                        	ljmpl	*(%esi)
		...
      ed: 00 0d 00 31 00 00            	addb	%cl, 0x3100
		...
      fb: 00 00                        	addb	%al, (%eax)
      fd: 00 0e                        	addb	%cl, (%esi)
      ff: 00 34 00                     	addb	%dh, (%eax,%eax)
     102: 00 00                        	addb	%al, (%eax)
     104: 14 00                        	adcb	$0x0, %al
		...
     10e: 0f 00 37                     	<unknown>
     111: 00 00                        	addb	%al, (%eax)
     113: 00 0c 00                     	addb	%cl, (%eax,%eax)
     116: 20 80 32 00 00 00            	andb	%al, 0x32(%eax)
     11c: 12 00                        	adcb	(%eax), %al
     11e: 01 00                        	addl	%eax, (%eax)
     120: 44                           	incl	%esp
     121: 00 00                        	addb	%al, (%eax)
     123: 00 48 01                     	addb	%cl, 0x1(%eax)
     126: 20 80 82 08 00 00            	andb	%al, 0x882(%eax)
     12c: 12 00                        	adcb	(%eax), %al
     12e: 01 00                        	addl	%eax, (%eax)
     130: 4d                           	decl	%ebp
     131: 00 00                        	addb	%al, (%eax)
     133: 00 3e                        	addb	%bh, (%esi)
     135: 00 20                        	addb	%ah, (%eax)
     137: 80 10 00                     	adcb	$0x0, (%eax)
     13a: 00 00                        	addb	%al, (%eax)
     13c: 12 00                        	adcb	(%eax), %al
     13e: 01 00                        	addl	%eax, (%eax)
     140: 55                           	pushl	%ebp
     141: 00 00                        	addb	%al, (%eax)
     143: 00 4e 00                     	addb	%cl, (%esi)
     146: 20 80 fa 00 00 00            	andb	%al, 0xfa(%eax)
     14c: 12 00                        	adcb	(%eax), %al
     14e: 01 00                        	addl	%eax, (%eax)
     150: 5f                           	popl	%edi
     151: 00 00                        	addb	%al, (%eax)
     153: 00 ca                        	addb	%cl, %dl
     155: 09 20                        	orl	%esp, (%eax)
     157: 80 22 00                     	andb	$0x0, (%edx)
     15a: 00 00                        	addb	%al, (%eax)
     15c: 12 00                        	adcb	(%eax), %al
     15e: 01 00                        	addl	%eax, (%eax)
     160: 69 00 00 00 d4 0a            	imull	$0xad40000, (%eax), %eax # imm = 0xAD40000
     166: 20 80 00 00 00 00            	andb	%al, (%eax)
     16c: 10 00                        	adcb	%al, (%eax)
     16e: 03 00                        	addl	(%eax), %eax
     170: 73 00                        	jae	0x172 <$d+0x172>
     172: 00 00                        	addb	%al, (%eax)
     174: d4 0a                        	aam
     176: 20 80 00 00 00 00            	andb	%al, (%eax)
     17c: 10 00                        	adcb	%al, (%eax)
     17e: 03 00                        	addl	(%eax), %eax
     180: 79 00                        	jns	0x182 <$d+0x182>
     182: 00 00                        	addb	%al, (%eax)
     184: 00 00                        	addb	%al, (%eax)
     186: 20 80 0c 00 00 00            	andb	%al, 0xc(%eax)
     18c: 12 00                        	adcb	(%eax), %al
     18e: 01 00                        	addl	%eax, (%eax)
     190: 7e 00                        	jle	0x192 <$d+0x192>
     192: 00 00                        	addb	%al, (%eax)
     194: d4 0a                        	aam
     196: 22 80 00 00 00 00            	andb	(%eax), %al
     19c: 10 00                        	adcb	%al, (%eax)
     19e: 03 00                        	addl	(%eax), %eax
     1a0: 8a 00                        	movb	(%eax), %al
     1a2: 00 00                        	addb	%al, (%eax)
     1a4: ec                           	inb	%dx, %al
     1a5: 09 20                        	orl	%esp, (%eax)
     1a7: 80 88 00 00 00 12 00         	orb	$0x0, 0x12000000(%eax)
     1ae: 01 00                        	addl	%eax, (%eax)

Disassembly of section .shstrtab:

00000000 <.shstrtab>:
       0: 00 2e                        	addb	%ch, (%esi)
       2: 74 65                        	je	0x69 <$d+0x69>
       4: 78 74                        	js	0x7a <$d+0x7a>
       6: 00 2e                        	addb	%ch, (%esi)
       8: 72 6f                        	jb	0x79 <$d+0x79>
       a: 64 61                        	popal
       c: 74 61                        	je	0x6f <$d+0x6f>
       e: 00 2e                        	addb	%ch, (%esi)
      10: 62 73 73                     	bound	%esi, 0x73(%ebx)
      13: 00 2e                        	addb	%ch, (%esi)
      15: 64 65 62 75 67               	bound	%esi, %gs:0x67(%ebp)
      1a: 5f                           	popl	%edi
      1b: 6c                           	insb	%dx, %es:(%edi)
      1c: 6f                           	outsl	(%esi), %dx
      1d: 63 6c 69 73                  	arpl	%bp, 0x73(%ecx,%ebp,2)
      21: 74 73                        	je	0x96 <$d+0x96>
      23: 00 2e                        	addb	%ch, (%esi)
      25: 64 65 62 75 67               	bound	%esi, %gs:0x67(%ebp)
      2a: 5f                           	popl	%edi
      2b: 61                           	popal
      2c: 62 62 72                     	bound	%esp, 0x72(%edx)
      2f: 65 76 00                     	jbe	0x32 <$d+0x32>
      32: 2e 64 65 62 75 67            	bound	%esi, %gs:0x67(%ebp)
      38: 5f                           	popl	%edi
      39: 69 6e 66 6f 00 2e 64         	imull	$0x642e006f, 0x66(%esi), %ebp # imm = 0x642E006F
      40: 65 62 75 67                  	bound	%esi, %gs:0x67(%ebp)
      44: 5f                           	popl	%edi
      45: 72 6e                        	jb	0xb5 <$d+0xb5>
      47: 67 6c                        	insb	%dx, %es:(%di)
      49: 69 73 74 73 00 2e 64         	imull	$0x642e0073, 0x74(%ebx), %esi # imm = 0x642E0073
      50: 65 62 75 67                  	bound	%esi, %gs:0x67(%ebp)
      54: 5f                           	popl	%edi
      55: 73 74                        	jae	0xcb <$d+0xcb>
      57: 72 5f                        	jb	0xb8 <$d+0xb8>
      59: 6f                           	outsl	(%esi), %dx
      5a: 66 66 73 65                  	jae	0xc3 <$d+0xc3>
      5e: 74 73                        	je	0xd3 <$d+0xd3>
      60: 00 2e                        	addb	%ch, (%esi)
      62: 64 65 62 75 67               	bound	%esi, %gs:0x67(%ebp)
      67: 5f                           	popl	%edi
      68: 73 74                        	jae	0xde <$d+0xde>
      6a: 72 00                        	jb	0x6c <$d+0x6c>
      6c: 2e 64 65 62 75 67            	bound	%esi, %gs:0x67(%ebp)
      72: 5f                           	popl	%edi
      73: 61                           	popal
      74: 64 64 72 00                  	jb	0x78 <$d+0x78>
      78: 2e 63 6f 6d                  	arpl	%bp, %cs:0x6d(%edi)
      7c: 6d                           	insl	%dx, %es:(%edi)
      7d: 65 6e                        	outsb	%gs:(%esi), %dx
      7f: 74 00                        	je	0x81 <$d+0x81>
      81: 2e 72 69                     	jb	0xed <$d+0xed>
      84: 73 63                        	jae	0xe9 <$d+0xe9>
      86: 76 2e                        	jbe	0xb6 <$d+0xb6>
      88: 61                           	popal
      89: 74 74                        	je	0xff <$d+0xff>
      8b: 72 69                        	jb	0xf6 <$d+0xf6>
      8d: 62 75 74                     	bound	%esi, 0x74(%ebp)
      90: 65 73 00                     	jae	0x93 <$d+0x93>
      93: 2e 64 65 62 75 67            	bound	%esi, %gs:0x67(%ebp)
      99: 5f                           	popl	%edi
      9a: 66 72 61                     	jb	0xfe <$d+0xfe>
      9d: 6d                           	insl	%dx, %es:(%edi)
      9e: 65 00 2e                     	addb	%ch, %gs:(%esi)
      a1: 64 65 62 75 67               	bound	%esi, %gs:0x67(%ebp)
      a6: 5f                           	popl	%edi
      a7: 6c                           	insb	%dx, %es:(%edi)
      a8: 69 6e 65 00 2e 64 65         	imull	$0x65642e00, 0x65(%esi), %ebp # imm = 0x65642E00
      af: 62 75 67                     	bound	%esi, 0x67(%ebp)
      b2: 5f                           	popl	%edi
      b3: 6c                           	insb	%dx, %es:(%edi)
      b4: 69 6e 65 5f 73 74 72         	imull	$0x7274735f, 0x65(%esi), %ebp # imm = 0x7274735F
      bb: 00 2e                        	addb	%ch, (%esi)
      bd: 73 79                        	jae	0x138 <$d+0x138>
      bf: 6d                           	insl	%dx, %es:(%edi)
      c0: 74 61                        	je	0x123 <$d+0x123>
      c2: 62 00                        	bound	%eax, (%eax)
      c4: 2e 73 68                     	jae	0x12f <$d+0x12f>
      c7: 73 74                        	jae	0x13d <$d+0x13d>
      c9: 72 74                        	jb	0x13f <$d+0x13f>
      cb: 61                           	popal
      cc: 62 00                        	bound	%eax, (%eax)
      ce: 2e 73 74                     	jae	0x145 <$d+0x145>
      d1: 72 74                        	jb	0x147 <$d+0x147>
      d3: 61                           	popal
      d4: 62 00                        	<unknown>

Disassembly of section .strtab:

00000000 <.strtab>:
       0: 00 6b 65                     	addb	%ch, 0x65(%ebx)
       3: 72 6e                        	jb	0x73 <$d+0x73>
       5: 65 6c                        	insb	%dx, %es:(%edi)
       7: 2e 63 00                     	arpl	%ax, %cs:(%eax)
       a: 24 78                        	andb	$0x78, %al
       c: 00 24 78                     	addb	%ah, (%eax,%edi,2)
       f: 00 24 64                     	addb	%ah, (%esp,%eiz,2)
      12: 00 24 64                     	addb	%ah, (%esp,%eiz,2)
      15: 00 24 64                     	addb	%ah, (%esp,%eiz,2)
      18: 00 24 64                     	addb	%ah, (%esp,%eiz,2)
      1b: 00 24 64                     	addb	%ah, (%esp,%eiz,2)
      1e: 00 24 64                     	addb	%ah, (%esp,%eiz,2)
      21: 00 24 64                     	addb	%ah, (%esp,%eiz,2)
      24: 00 24 64                     	addb	%ah, (%esp,%eiz,2)
      27: 00 24 64                     	addb	%ah, (%esp,%eiz,2)
      2a: 00 24 64                     	addb	%ah, (%esp,%eiz,2)
      2d: 00 24 64                     	addb	%ah, (%esp,%eiz,2)
      30: 00 24 64                     	addb	%ah, (%esp,%eiz,2)
      33: 00 24 64                     	addb	%ah, (%esp,%eiz,2)
      36: 00 70 72                     	addb	%dh, 0x72(%eax)
      39: 69 6e 74 5f 73 74 72         	imull	$0x7274735f, 0x74(%esi), %ebp # imm = 0x7274735F
      40: 69 6e 67 00 73 62 69         	imull	$0x69627300, 0x67(%esi), %ebp # imm = 0x69627300
      47: 5f                           	popl	%edi
      48: 63 61 6c                     	arpl	%sp, 0x6c(%ecx)
      4b: 6c                           	insb	%dx, %es:(%edi)
      4c: 00 70 75                     	addb	%dh, 0x75(%eax)
      4f: 74 63                        	je	0xb4 <$d+0xb4>
      51: 68 61 72 00 70               	pushl	$0x70007261             # imm = 0x70007261
      56: 72 69                        	jb	0xc1 <$d+0xc1>
      58: 6e                           	outsb	(%esi), %dx
      59: 74 5f                        	je	0xba <$d+0xba>
      5b: 68 65 78 00 63               	pushl	$0x63007865             # imm = 0x63007865
      60: 6c                           	insb	%dx, %es:(%edi)
      61: 65 61                        	popal
      63: 72 5f                        	jb	0xc4 <$d+0xc4>
      65: 62 73 73                     	bound	%esi, 0x73(%ebx)
      68: 00 5f 5f                     	addb	%bl, 0x5f(%edi)
      6b: 62 73 73                     	bound	%esi, 0x73(%ebx)
      6e: 5f                           	popl	%edi
      6f: 65 6e                        	outsb	%gs:(%esi), %dx
      71: 64 00 5f 5f                  	addb	%bl, %fs:0x5f(%edi)
      75: 62 73 73                     	bound	%esi, 0x73(%ebx)
      78: 00 62 6f                     	addb	%ah, 0x6f(%edx)
      7b: 6f                           	outsl	(%esi), %dx
      7c: 74 00                        	je	0x7e <$d+0x7e>
      7e: 5f                           	popl	%edi
      7f: 5f                           	popl	%edi
      80: 73 74                        	jae	0xf6 <$d+0xf6>
      82: 61                           	popal
      83: 63 6b 5f                     	arpl	%bp, 0x5f(%ebx)
      86: 74 6f                        	je	0xf7 <$d+0xf7>
      88: 70 00                        	jo	0x8a <$d+0x8a>
      8a: 6b 65 72 6e                  	imull	$0x6e, 0x72(%ebp), %esp
      8e: 65 6c                        	insb	%dx, %es:(%edi)
      90: 5f                           	popl	%edi
      91: 6d                           	insl	%dx, %es:(%edi)
      92: 61                           	popal
      93: 69 6e 00                     	<unknown>
