
kernel.elf:	file format elf32-littleriscv

Disassembly of section .text:

80200000 <boot>:
80200000: 00100117     	auipc	sp, 0x100
80200004: 38810113     	addi	sp, sp, 0x388
80200008: 2c59         	jal	0x8020029e <kernel_main>

8020000a <print_string>:
8020000a: 1141         	addi	sp, sp, -0x10
8020000c: c606         	sw	ra, 0xc(sp)
8020000e: c422         	sw	s0, 0x8(sp)
80200010: 0800         	addi	s0, sp, 0x10
80200012: fea42a23     	sw	a0, -0xc(s0)
80200016: 4501         	li	a0, 0x0
80200018: fea42823     	sw	a0, -0x10(s0)
8020001c: a009         	j	0x8020001e <print_string+0x14>
8020001e: ff442503     	lw	a0, -0xc(s0)
80200022: ff042583     	lw	a1, -0x10(s0)
80200026: 952e         	add	a0, a0, a1
80200028: 00054503     	lbu	a0, 0x0(a0)
8020002c: c10d         	beqz	a0, 0x8020004e <print_string+0x44>
8020002e: a009         	j	0x80200030 <print_string+0x26>
80200030: ff442503     	lw	a0, -0xc(s0)
80200034: ff042583     	lw	a1, -0x10(s0)
80200038: 952e         	add	a0, a0, a1
8020003a: 00054503     	lbu	a0, 0x0(a0)
8020003e: 2821         	jal	0x80200056 <putchar>
80200040: a009         	j	0x80200042 <print_string+0x38>
80200042: ff042503     	lw	a0, -0x10(s0)
80200046: 0505         	addi	a0, a0, 0x1
80200048: fea42823     	sw	a0, -0x10(s0)
8020004c: bfc9         	j	0x8020001e <print_string+0x14>
8020004e: 40b2         	lw	ra, 0xc(sp)
80200050: 4422         	lw	s0, 0x8(sp)
80200052: 0141         	addi	sp, sp, 0x10
80200054: 8082         	ret

80200056 <putchar>:
80200056: 1101         	addi	sp, sp, -0x20
80200058: ce06         	sw	ra, 0x1c(sp)
8020005a: cc22         	sw	s0, 0x18(sp)
8020005c: 1000         	addi	s0, sp, 0x20
8020005e: fea40ba3     	sb	a0, -0x9(s0)
80200062: ff744503     	lbu	a0, -0x9(s0)
80200066: 4801         	li	a6, 0x0
80200068: 4885         	li	a7, 0x1
8020006a: 85c2         	mv	a1, a6
8020006c: 8642         	mv	a2, a6
8020006e: 86c2         	mv	a3, a6
80200070: 8742         	mv	a4, a6
80200072: 87c2         	mv	a5, a6
80200074: 286d         	jal	0x8020012e <sbi_call>
80200076: feb42823     	sw	a1, -0x10(s0)
8020007a: fea42623     	sw	a0, -0x14(s0)
8020007e: 40f2         	lw	ra, 0x1c(sp)
80200080: 4462         	lw	s0, 0x18(sp)
80200082: 6105         	addi	sp, sp, 0x20
80200084: 8082         	ret

80200086 <print_hex>:
80200086: 7139         	addi	sp, sp, -0x40
80200088: de06         	sw	ra, 0x3c(sp)
8020008a: dc22         	sw	s0, 0x38(sp)
8020008c: 0080         	addi	s0, sp, 0x40
8020008e: fea42a23     	sw	a0, -0xc(s0)
80200092: 4501         	li	a0, 0x0
80200094: fea40823     	sb	a0, -0x10(s0)
80200098: 666565b7     	lui	a1, 0x66656
8020009c: 46358593     	addi	a1, a1, 0x463
802000a0: feb42623     	sw	a1, -0x14(s0)
802000a4: 626145b7     	lui	a1, 0x62614
802000a8: 93858593     	addi	a1, a1, -0x6c8
802000ac: feb42423     	sw	a1, -0x18(s0)
802000b0: 373635b7     	lui	a1, 0x37363
802000b4: 53458593     	addi	a1, a1, 0x534
802000b8: feb42223     	sw	a1, -0x1c(s0)
802000bc: 333235b7     	lui	a1, 0x33323
802000c0: 13058593     	addi	a1, a1, 0x130
802000c4: feb42023     	sw	a1, -0x20(s0)
802000c8: fca40fa3     	sb	a0, -0x21(s0)
802000cc: 453d         	li	a0, 0xf
802000ce: fca42423     	sw	a0, -0x38(s0)
802000d2: a009         	j	0x802000d4 <print_hex+0x4e>
802000d4: fc842503     	lw	a0, -0x38(s0)
802000d8: 02054f63     	bltz	a0, 0x80200116 <print_hex+0x90>
802000dc: a009         	j	0x802000de <print_hex+0x58>
802000de: ff442503     	lw	a0, -0xc(s0)
802000e2: 00f57593     	andi	a1, a0, 0xf
802000e6: fe040513     	addi	a0, s0, -0x20
802000ea: 952e         	add	a0, a0, a1
802000ec: 00054503     	lbu	a0, 0x0(a0)
802000f0: fc842603     	lw	a2, -0x38(s0)
802000f4: fcf40593     	addi	a1, s0, -0x31
802000f8: 95b2         	add	a1, a1, a2
802000fa: 00a58023     	sb	a0, 0x0(a1)
802000fe: ff442503     	lw	a0, -0xc(s0)
80200102: 8111         	srli	a0, a0, 0x4
80200104: fea42a23     	sw	a0, -0xc(s0)
80200108: a009         	j	0x8020010a <print_hex+0x84>
8020010a: fc842503     	lw	a0, -0x38(s0)
8020010e: 157d         	addi	a0, a0, -0x1
80200110: fca42423     	sw	a0, -0x38(s0)
80200114: b7c1         	j	0x802000d4 <print_hex+0x4e>
80200116: 80200537     	lui	a0, 0x80200
8020011a: 33950513     	addi	a0, a0, 0x339
8020011e: 35f5         	jal	0x8020000a <print_string>
80200120: fcf40513     	addi	a0, s0, -0x31
80200124: 35dd         	jal	0x8020000a <print_string>
80200126: 50f2         	lw	ra, 0x3c(sp)
80200128: 5462         	lw	s0, 0x38(sp)
8020012a: 6121         	addi	sp, sp, 0x40
8020012c: 8082         	ret

8020012e <sbi_call>:
8020012e: 711d         	addi	sp, sp, -0x60
80200130: ce86         	sw	ra, 0x5c(sp)
80200132: cca2         	sw	s0, 0x58(sp)
80200134: 1080         	addi	s0, sp, 0x60
80200136: fea42623     	sw	a0, -0x14(s0)
8020013a: feb42423     	sw	a1, -0x18(s0)
8020013e: fec42223     	sw	a2, -0x1c(s0)
80200142: fed42023     	sw	a3, -0x20(s0)
80200146: fce42e23     	sw	a4, -0x24(s0)
8020014a: fcf42c23     	sw	a5, -0x28(s0)
8020014e: fd042a23     	sw	a6, -0x2c(s0)
80200152: fd142823     	sw	a7, -0x30(s0)
80200156: 80200537     	lui	a0, 0x80200
8020015a: 31850513     	addi	a0, a0, 0x318
8020015e: 3575         	jal	0x8020000a <print_string>
80200160: fd442503     	lw	a0, -0x2c(s0)
80200164: 370d         	jal	0x80200086 <print_hex>
80200166: 80200537     	lui	a0, 0x80200
8020016a: 36c50513     	addi	a0, a0, 0x36c
8020016e: 3d71         	jal	0x8020000a <print_string>
80200170: fd042503     	lw	a0, -0x30(s0)
80200174: 3f09         	jal	0x80200086 <print_hex>
80200176: 80200537     	lui	a0, 0x80200
8020017a: 30e50513     	addi	a0, a0, 0x30e
8020017e: 3571         	jal	0x8020000a <print_string>
80200180: fec42503     	lw	a0, -0x14(s0)
80200184: 3709         	jal	0x80200086 <print_hex>
80200186: 80200537     	lui	a0, 0x80200
8020018a: 30b50513     	addi	a0, a0, 0x30b
8020018e: 3db5         	jal	0x8020000a <print_string>
80200190: fe842503     	lw	a0, -0x18(s0)
80200194: 3dcd         	jal	0x80200086 <print_hex>
80200196: 80200537     	lui	a0, 0x80200
8020019a: 35050513     	addi	a0, a0, 0x350
8020019e: faa42623     	sw	a0, -0x54(s0)
802001a2: 35a5         	jal	0x8020000a <print_string>
802001a4: fec42503     	lw	a0, -0x14(s0)
802001a8: fca42623     	sw	a0, -0x34(s0)
802001ac: fe842503     	lw	a0, -0x18(s0)
802001b0: fca42423     	sw	a0, -0x38(s0)
802001b4: fe442503     	lw	a0, -0x1c(s0)
802001b8: fca42223     	sw	a0, -0x3c(s0)
802001bc: fe042503     	lw	a0, -0x20(s0)
802001c0: fca42023     	sw	a0, -0x40(s0)
802001c4: fdc42503     	lw	a0, -0x24(s0)
802001c8: faa42e23     	sw	a0, -0x44(s0)
802001cc: fd842503     	lw	a0, -0x28(s0)
802001d0: faa42c23     	sw	a0, -0x48(s0)
802001d4: fd442503     	lw	a0, -0x2c(s0)
802001d8: faa42a23     	sw	a0, -0x4c(s0)
802001dc: fd042503     	lw	a0, -0x30(s0)
802001e0: faa42823     	sw	a0, -0x50(s0)
802001e4: fcc42503     	lw	a0, -0x34(s0)
802001e8: fc842583     	lw	a1, -0x38(s0)
802001ec: fc442603     	lw	a2, -0x3c(s0)
802001f0: fc042683     	lw	a3, -0x40(s0)
802001f4: fbc42703     	lw	a4, -0x44(s0)
802001f8: fb842783     	lw	a5, -0x48(s0)
802001fc: fb442803     	lw	a6, -0x4c(s0)
80200200: fb042883     	lw	a7, -0x50(s0)
80200204: 00000073     	ecall
80200208: fca42623     	sw	a0, -0x34(s0)
8020020c: fcb42423     	sw	a1, -0x38(s0)
80200210: 80200537     	lui	a0, 0x80200
80200214: 35250513     	addi	a0, a0, 0x352
80200218: 3bcd         	jal	0x8020000a <print_string>
8020021a: fcc42503     	lw	a0, -0x34(s0)
8020021e: 35a5         	jal	0x80200086 <print_hex>
80200220: 80200537     	lui	a0, 0x80200
80200224: 30050513     	addi	a0, a0, 0x300
80200228: 33cd         	jal	0x8020000a <print_string>
8020022a: fc842503     	lw	a0, -0x38(s0)
8020022e: 3da1         	jal	0x80200086 <print_hex>
80200230: fac42503     	lw	a0, -0x54(s0)
80200234: 3bd9         	jal	0x8020000a <print_string>
80200236: fcc42503     	lw	a0, -0x34(s0)
8020023a: fea42823     	sw	a0, -0x10(s0)
8020023e: fc842503     	lw	a0, -0x38(s0)
80200242: fea42a23     	sw	a0, -0xc(s0)
80200246: ff042503     	lw	a0, -0x10(s0)
8020024a: ff442583     	lw	a1, -0xc(s0)
8020024e: 40f6         	lw	ra, 0x5c(sp)
80200250: 4466         	lw	s0, 0x58(sp)
80200252: 6125         	addi	sp, sp, 0x60
80200254: 8082         	ret

80200256 <clear_bss>:
80200256: 1141         	addi	sp, sp, -0x10
80200258: c606         	sw	ra, 0xc(sp)
8020025a: c422         	sw	s0, 0x8(sp)
8020025c: 0800         	addi	s0, sp, 0x10
8020025e: 80200537     	lui	a0, 0x80200
80200262: 38850513     	addi	a0, a0, 0x388
80200266: fea42a23     	sw	a0, -0xc(s0)
8020026a: a009         	j	0x8020026c <clear_bss+0x16>
8020026c: ff442503     	lw	a0, -0xc(s0)
80200270: 802005b7     	lui	a1, 0x80200
80200274: 38858593     	addi	a1, a1, 0x388
80200278: 00b57f63     	bgeu	a0, a1, 0x80200296 <clear_bss+0x40>
8020027c: a009         	j	0x8020027e <clear_bss+0x28>
8020027e: ff442583     	lw	a1, -0xc(s0)
80200282: 4501         	li	a0, 0x0
80200284: 00a58023     	sb	a0, 0x0(a1)
80200288: a009         	j	0x8020028a <clear_bss+0x34>
8020028a: ff442503     	lw	a0, -0xc(s0)
8020028e: 0505         	addi	a0, a0, 0x1
80200290: fea42a23     	sw	a0, -0xc(s0)
80200294: bfe1         	j	0x8020026c <clear_bss+0x16>
80200296: 40b2         	lw	ra, 0xc(sp)
80200298: 4422         	lw	s0, 0x8(sp)
8020029a: 0141         	addi	sp, sp, 0x10
8020029c: 8082         	ret

8020029e <kernel_main>:
8020029e: 1141         	addi	sp, sp, -0x10
802002a0: c606         	sw	ra, 0xc(sp)
802002a2: c422         	sw	s0, 0x8(sp)
802002a4: 0800         	addi	s0, sp, 0x10
802002a6: 80200537     	lui	a0, 0x80200
802002aa: 33c50513     	addi	a0, a0, 0x33c
802002ae: 3bb1         	jal	0x8020000a <print_string>
802002b0: 375d         	jal	0x80200256 <clear_bss>
802002b2: 80200537     	lui	a0, 0x80200
802002b6: 32950513     	addi	a0, a0, 0x329
802002ba: fea42a23     	sw	a0, -0xc(s0)
802002be: 4501         	li	a0, 0x0
802002c0: fea42823     	sw	a0, -0x10(s0)
802002c4: a009         	j	0x802002c6 <kernel_main+0x28>
802002c6: ff442503     	lw	a0, -0xc(s0)
802002ca: ff042583     	lw	a1, -0x10(s0)
802002ce: 952e         	add	a0, a0, a1
802002d0: 00054503     	lbu	a0, 0x0(a0)
802002d4: c10d         	beqz	a0, 0x802002f6 <kernel_main+0x58>
802002d6: a009         	j	0x802002d8 <kernel_main+0x3a>
802002d8: ff442503     	lw	a0, -0xc(s0)
802002dc: ff042583     	lw	a1, -0x10(s0)
802002e0: 952e         	add	a0, a0, a1
802002e2: 00054503     	lbu	a0, 0x0(a0)
802002e6: 3b85         	jal	0x80200056 <putchar>
802002e8: a009         	j	0x802002ea <kernel_main+0x4c>
802002ea: ff042503     	lw	a0, -0x10(s0)
802002ee: 0505         	addi	a0, a0, 0x1
802002f0: fea42823     	sw	a0, -0x10(s0)
802002f4: bfc9         	j	0x802002c6 <kernel_main+0x28>
802002f6: a009         	j	0x802002f8 <kernel_main+0x5a>
802002f8: 10500073     	wfi
802002fc: bff5         	j	0x802002f8 <kernel_main+0x5a>

Disassembly of section .rodata:

80200300 <.rodata>:
80200300: 202c         	<unknown>
80200302: 6176         	<unknown>
80200304: 756c         	<unknown>
80200306: 2065         	jal	0x802003ae <__bss_end+0x26>
80200308: 203d         	jal	0x80200336 <.rodata+0x36>
8020030a: 2c00         	<unknown>
8020030c: 0020         	addi	s0, sp, 0x8
8020030e: 202c         	<unknown>
80200310: 7261         	lui	tp, 0xffff8
80200312: 3d207367     	<unknown>
80200316: 0020         	addi	s0, sp, 0x8
80200318: 5f696273     	csrrsi	tp, 0x5f6, 0x12
8020031c: 6c6c6163     	bltu	s8, t1, 0x802009de <__bss_end+0x656>
80200320: 203a         	<unknown>
80200322: 6966         	<unknown>
80200324: 2064         	<unknown>
80200326: 203d         	jal	0x80200354 <.rodata+0x54>
80200328: 0a00         	addi	s0, sp, 0x110
8020032a: 480a         	lw	a6, 0x80(sp)
8020032c: 6c65         	lui	s8, 0x19
8020032e: 6f6c         	<unknown>
80200330: 5720         	lw	s0, 0x68(a4)
80200332: 646c726f     	jal	tp, 0x802c7978 <__bss_end+0xc75f0>
80200336: 0a21         	addi	s4, s4, 0x8
80200338: 3000         	<unknown>
8020033a: 0078         	addi	a4, sp, 0xc
8020033c: 6e72656b     	<unknown>
80200340: 6c65         	lui	s8, 0x19
80200342: 6d5f 6961 3a6e       	<unknown>
80200348: 7320         	<unknown>
8020034a: 6174         	<unknown>
8020034c: 7472         	<unknown>
8020034e: 000a         	c.slli	zero, 0x2
80200350: 000a         	c.slli	zero, 0x2
80200352: 5f696273     	csrrsi	tp, 0x5f6, 0x12
80200356: 6c6c6163     	bltu	s8, t1, 0x80200a18 <__bss_end+0x690>
8020035a: 203a         	<unknown>
8020035c: 6572         	<unknown>
8020035e: 7574         	<unknown>
80200360: 6e72         	<unknown>
80200362: 6520         	<unknown>
80200364: 7272         	<unknown>
80200366: 3d20726f     	jal	tp, 0x80207738 <__bss_end+0x73b0>
8020036a: 0020         	addi	s0, sp, 0x8
8020036c: 202c         	<unknown>
8020036e: 6965         	lui	s2, 0x19
80200370: 2064         	<unknown>
80200372: 203d         	jal	0x802003a0 <__bss_end+0x18>
80200374: 3000         	<unknown>
80200376: 3231         	jal	0x801ffc82
80200378: 36353433     	<unknown>
8020037c: 61393837     	lui	a6, 0x61393
80200380: 6362         	<unknown>
80200382: 6564         	<unknown>
80200384: 0066         	c.slli	zero, 0x19

Disassembly of section .debug_abbrev:

00000000 <.debug_abbrev>:
       0: 1101         	addi	sp, sp, -0x20
       2: 2501         	jal	0x602 <.debug_abbrev+0x602>
       4: 1325         	addi	t1, t1, -0x17
       6: 0305         	addi	t1, t1, 0x1
       8: 7225         	lui	tp, 0xfffe9
       a: 1b171017     	auipc	zero, 0x1b171
       e: 1125         	addi	sp, sp, -0x17
      10: 5501         	li	a0, -0x20
      12: 74177323     	<unknown>
      16: 02000017     	auipc	zero, 0x2000
      1a: 0034         	addi	a3, sp, 0x8
      1c: 1349         	addi	t1, t1, -0xe
      1e: 0b3a         	slli	s6, s6, 0xe
      20: 18020b3b     	<unknown>
      24: 0000         	unimp
      26: 49010103     	lb	sp, 0x490(sp)
      2a: 04000013     	li	zero, 0x40
      2e: 0021         	c.nop	0x8
      30: 1349         	addi	t1, t1, -0xe
      32: 00000b37     	lui	s6, 0x0
      36: 2405         	jal	0x256 <.debug_abbrev+0x256>
      38: 0300         	addi	s0, sp, 0x180
      3a: 3e25         	jal	0xfffffb72 <__stack_top+0xffffffff7fcff7ea>
      3c: 000b0b0b     	<unknown>
      40: 0600         	addi	s0, sp, 0x300
      42: 0024         	addi	s1, sp, 0x8
      44: 0b0b2503     	lw	a0, 0xb0(s6)
      48: 0b3e         	slli	s6, s6, 0xf
      4a: 0000         	unimp
      4c: 11012e07     	<unknown>
      50: 4006121b     	<unknown>
      54: 0318         	addi	a4, sp, 0x180
      56: 3a25         	jal	0xfffff98e <__stack_top+0xffffffff7fcff606>
      58: 270b3b0b     	<unknown>
      5c: 3f19         	jal	0xffffff72 <__stack_top+0xffffffff7fcffbea>
      5e: 0019         	c.nop	0x6
      60: 0800         	addi	s0, sp, 0x10
      62: 0005         	c.nop	0x1
      64: 1802         	c.slli	a6, 0x20
      66: 0b3a2503     	lw	a0, 0xb3(s4)
      6a: 13490b3b     	<unknown>
      6e: 0000         	unimp
      70: 0b09         	addi	s6, s6, 0x2
      72: 1101         	addi	sp, sp, -0x20
      74: 0006121b     	<unknown>
      78: 0a00         	addi	s0, sp, 0x110
      7a: 0034         	addi	a3, sp, 0x8
      7c: 1802         	c.slli	a6, 0x20
      7e: 0b3a2503     	lw	a0, 0xb3(s4)
      82: 13490b3b     	<unknown>
      86: 0000         	unimp
      88: 11012e0b     	<unknown>
      8c: 4006121b     	<unknown>
      90: 0318         	addi	a4, sp, 0x180
      92: 3a25         	jal	0xfffff9ca <__stack_top+0xffffffff7fcff642>
      94: 270b3b0b     	<unknown>
      98: 4919         	li	s2, 0x6
      9a: 00193f13     	seqz	t5, s2
      9e: 0c00         	addi	s0, sp, 0x210
      a0: 002e         	c.slli	zero, 0xb
      a2: 1b11         	addi	s6, s6, -0x1c
      a4: 0612         	slli	a2, a2, 0x4
      a6: 1840         	addi	s0, sp, 0x34
      a8: 0b3a2503     	lw	a0, 0xb3(s4)
      ac: 19270b3b     	<unknown>
      b0: 0000193f 0301130d    	<unknown>
      b8: 0b25         	addi	s6, s6, 0x9
      ba: 3b0b3a0b     	<unknown>
      be: 0e00000b     	<unknown>
      c2: 000d         	c.nop	0x3
      c4: 13492503     	lw	a0, 0x134(s2)
      c8: 0b3a         	slli	s6, s6, 0xe
      ca: 0b380b3b     	<unknown>
      ce: 0000         	unimp
      d0: 49000f0f     	<unknown>
      d4: 10000013     	li	zero, 0x100
      d8: 0026         	c.slli	zero, 0x9
      da: 1349         	addi	t1, t1, -0xe
      dc: 0000         	unimp
      de: 00           	<unknown>

Disassembly of section .debug_info:

00000000 <.debug_info>:
       0: 000002cf     	<unknown>
       4: 0005         	c.nop	0x1
       6: 0401         	c.addi	s0, 0x0
       8: 0000         	unimp
       a: 0000         	unimp
       c: 0001         	nop
       e: 001d         	c.nop	0x7
      10: 0801         	c.addi	a6, 0x0
      12: 0000         	unimp
      14: 0000         	unimp
      16: 0000         	unimp
      18: 0200         	addi	s0, sp, 0x100
      1a: 0000         	unimp
      1c: 0000         	unimp
      1e: 0800         	addi	s0, sp, 0x10
      20: 0000         	unimp
      22: 0c00         	addi	s0, sp, 0x210
      24: 0000         	unimp
      26: 0200         	addi	s0, sp, 0x100
      28: 0031         	c.nop	0xc
      2a: 0000         	unimp
      2c: 1800         	addi	s0, sp, 0x30
      2e: a102         	<unknown>
      30: 0300         	addi	s0, sp, 0x180
      32: 003d         	c.nop	0xf
      34: 0000         	unimp
      36: 4104         	lw	s1, 0x0(a0)
      38: 0000         	unimp
      3a: 0300         	addi	s0, sp, 0x180
      3c: 0500         	addi	s0, sp, 0x280
      3e: 06010803     	lb	a6, 0x60(sp)
      42: 0804         	addi	s1, sp, 0x10
      44: 004f0207     	<unknown>
      48: 0000         	unimp
      4a: 1e00         	addi	s0, sp, 0x330
      4c: a102         	<unknown>
      4e: 0301         	c.addi	t1, 0x0
      50: 003d         	c.nop	0xf
      52: 0000         	unimp
      54: 4104         	lw	s1, 0x0(a0)
      56: 0000         	unimp
      58: 1100         	addi	s0, sp, 0xa0
      5a: 0200         	addi	s0, sp, 0x100
      5c: 0065         	c.nop	0x19
      5e: 0000         	unimp
      60: 2000         	<unknown>
      62: a102         	<unknown>
      64: 0302         	c.slli64	t1
      66: 003d         	c.nop	0xf
      68: 0000         	unimp
      6a: 4104         	lw	s1, 0x0(a0)
      6c: 0000         	unimp
      6e: 0900         	addi	s0, sp, 0x90
      70: 0200         	addi	s0, sp, 0x100
      72: 0000007b     	<unknown>
      76: 2200         	<unknown>
      78: a102         	<unknown>
      7a: 003d0303     	lb	t1, 0x3(s10)
      7e: 0000         	unimp
      80: 4104         	lw	s1, 0x0(a0)
      82: 0000         	unimp
      84: 0a00         	addi	s0, sp, 0x110
      86: 0200         	addi	s0, sp, 0x100
      88: 0031         	c.nop	0xc
      8a: 0000         	unimp
      8c: 2400         	<unknown>
      8e: a102         	<unknown>
      90: 0204         	addi	s1, sp, 0x100
      92: 0000009b     	<unknown>
      96: 2600         	<unknown>
      98: a102         	<unknown>
      9a: 0305         	addi	t1, t1, 0x1
      9c: 003d         	c.nop	0xf
      9e: 0000         	unimp
      a0: 4104         	lw	s1, 0x0(a0)
      a2: 0000         	unimp
      a4: 0200         	addi	s0, sp, 0x100
      a6: 0200         	addi	s0, sp, 0x100
      a8: 00b1         	addi	ra, ra, 0xc
      aa: 0000         	unimp
      ac: 3700         	<unknown>
      ae: a102         	<unknown>
      b0: 0306         	slli	t1, t1, 0x1
      b2: 003d         	c.nop	0xf
      b4: 0000         	unimp
      b6: 4104         	lw	s1, 0x0(a0)
      b8: 0000         	unimp
      ba: 1a00         	addi	s0, sp, 0x130
      bc: 0200         	addi	s0, sp, 0x100
      be: 000000c7     	<unknown>
      c2: 3900         	<unknown>
      c4: a102         	<unknown>
      c6: 003d0307     	<unknown>
      ca: 0000         	unimp
      cc: 4104         	lw	s1, 0x0(a0)
      ce: 0000         	unimp
      d0: 0b00         	addi	s0, sp, 0x190
      d2: 0200         	addi	s0, sp, 0x100
      d4: 00dd         	addi	ra, ra, 0x17
      d6: 0000         	unimp
      d8: 5800         	lw	s0, 0x30(s0)
      da: a102         	<unknown>
      dc: 0308         	addi	a0, sp, 0x180
      de: 003d         	c.nop	0xf
      e0: 0000         	unimp
      e2: 4104         	lw	s1, 0x0(a0)
      e4: 0000         	unimp
      e6: 1400         	addi	s0, sp, 0x220
      e8: 0200         	addi	s0, sp, 0x100
      ea: 000000f3     	<unknown>
      ee: 5a00         	lw	s0, 0x30(a2)
      f0: a102         	<unknown>
      f2: 0309         	addi	t1, t1, 0x2
      f4: 003d         	c.nop	0xf
      f6: 0000         	unimp
      f8: 4104         	lw	s1, 0x0(a0)
      fa: 0000         	unimp
      fc: 1000         	addi	s0, sp, 0x20
      fe: 0700         	addi	s0, sp, 0x380
     100: 4c0a         	lw	s8, 0x80(sp)
     102: 0000         	unimp
     104: 0100         	addi	s0, sp, 0x80
     106: 0558         	addi	a4, sp, 0x284
     108: 0900         	addi	s0, sp, 0x90
     10a: 0208         	addi	a0, sp, 0x100
     10c: 7491         	lui	s1, 0xfffe4
     10e: 0010         	<unknown>
     110: bb09         	j	0xfffffe22 <__stack_top+0xffffffff7fcffa9a>
     112: 0002         	c.slli64	zero
     114: 0900         	addi	s0, sp, 0x90
     116: 0000360b     	<unknown>
     11a: 0a00         	addi	s0, sp, 0x110
     11c: 9102         	jalr	sp
     11e: 1170         	addi	a2, sp, 0xac
     120: 0a00         	addi	s0, sp, 0x110
     122: 02c5         	addi	t0, t0, 0x11
     124: 0000         	unimp
     126: 0000         	unimp
     128: 00300c07     	<unknown>
     12c: 0000         	unimp
     12e: 5801         	li	a6, -0x20
     130: 0006         	c.slli	zero, 0x1
     132: 0840         	addi	s0, sp, 0x14
     134: 9102         	jalr	sp
     136: 40001377     	<unknown>
     13a: 003d         	c.nop	0xf
     13c: 0000         	unimp
     13e: 020a         	slli	tp, tp, 0x2
     140: 6c91         	lui	s9, 0x4
     142: 0014         	<unknown>
     144: 9f42         	add	t5, t5, a6
     146: 0002         	c.slli64	zero
     148: 0000         	unimp
     14a: 00a80d07     	<unknown>
     14e: 0000         	unimp
     150: 5801         	li	a6, -0x20
     152: 08100007     	<unknown>
     156: 9102         	jalr	sp
     158: 1574         	addi	a3, sp, 0x2ac
     15a: 1000         	addi	s0, sp, 0x20
     15c: 02c9         	addi	t0, t0, 0x12
     15e: 0000         	unimp
     160: 020a         	slli	tp, tp, 0x2
     162: 6091         	lui	ra, 0x4
     164: 4f110017     	auipc	zero, 0x4f110
     168: 0000         	unimp
     16a: 0a00         	addi	s0, sp, 0x110
     16c: 9102         	jalr	sp
     16e: 1200184f     	<unknown>
     172: 0000004f     	<unknown>
     176: 0e09         	addi	t3, t3, 0x2
     178: 0048         	addi	a0, sp, 0x4
     17a: 0000         	unimp
     17c: 020a         	slli	tp, tp, 0x2
     17e: 4891         	li	a7, 0x4
     180: 0011         	c.nop	0x4
     182: c514         	sw	a3, 0x8(a0)
     184: 0002         	c.slli64	zero
     186: 0000         	unimp
     188: 0b00         	addi	s0, sp, 0x190
     18a: 0001280f     	<unknown>
     18e: 0100         	addi	s0, sp, 0x80
     190: 0858         	addi	a4, sp, 0x14
     192: 1c00         	addi	s0, sp, 0x230
     194: 029f 0000 0208       	<unknown>
     19a: 6c91         	lui	s9, 0x4
     19c: 0019         	c.nop	0x6
     19e: b71c         	<unknown>
     1a0: 0002         	c.slli64	zero
     1a2: 0800         	addi	s0, sp, 0x10
     1a4: 9102         	jalr	sp
     1a6: 1a68         	addi	a0, sp, 0x13c
     1a8: 1c00         	addi	s0, sp, 0x230
     1aa: 000002b7     	lui	t0, 0x0
     1ae: 0208         	addi	a0, sp, 0x100
     1b0: 6491         	lui	s1, 0x4
     1b2: b71c001b     	<unknown>
     1b6: 0002         	c.slli64	zero
     1b8: 0800         	addi	s0, sp, 0x10
     1ba: 9102         	jalr	sp
     1bc: 1c60         	addi	s0, sp, 0x23c
     1be: 1c00         	addi	s0, sp, 0x230
     1c0: 000002b7     	lui	t0, 0x0
     1c4: 0208         	addi	a0, sp, 0x100
     1c6: 5c91         	li	s9, -0x1c
     1c8: 001d         	c.nop	0x7
     1ca: b71c         	<unknown>
     1cc: 0002         	c.slli64	zero
     1ce: 0800         	addi	s0, sp, 0x10
     1d0: 9102         	jalr	sp
     1d2: 1e58         	addi	a4, sp, 0x334
     1d4: 1d00         	addi	s0, sp, 0x2b0
     1d6: 000002b7     	lui	t0, 0x0
     1da: 0208         	addi	a0, sp, 0x100
     1dc: 5491         	li	s1, -0x1c
     1de: 001f b71d 0002       	<unknown>
     1e4: 0800         	addi	s0, sp, 0x10
     1e6: 9102         	jalr	sp
     1e8: 2050         	<unknown>
     1ea: 1d00         	addi	s0, sp, 0x2b0
     1ec: 000002b7     	lui	t0, 0x0
     1f0: 020a         	slli	tp, tp, 0x2
     1f2: 4c91         	li	s9, 0x4
     1f4: 0021         	c.nop	0x8
     1f6: b728         	<unknown>
     1f8: 0002         	c.slli64	zero
     1fa: 0a00         	addi	s0, sp, 0x110
     1fc: 9102         	jalr	sp
     1fe: 2248         	<unknown>
     200: 2900         	<unknown>
     202: 000002b7     	lui	t0, 0x0
     206: 020a         	slli	tp, tp, 0x2
     208: 4491         	li	s1, 0x4
     20a: b72a0023     	sb	s2, -0x4a0(s4)
     20e: 0002         	c.slli64	zero
     210: 0a00         	addi	s0, sp, 0x110
     212: 9102         	jalr	sp
     214: 2440         	<unknown>
     216: 2b00         	<unknown>
     218: 000002b7     	lui	t0, 0x0
     21c: 030a         	slli	t1, t1, 0x2
     21e: bc91         	j	0xfffffc72 <__stack_top+0xffffffff7fcff8ea>
     220: 257f 2c00 02b7 0000 030a b891 267f   	<unknown>
     22e: 2d00         	<unknown>
     230: 000002b7     	lui	t0, 0x0
     234: 030a         	slli	t1, t1, 0x2
     236: b491         	j	0xfffffc7a <__stack_top+0xffffffff7fcff8f2>
     238: 277f 2e00 02b7 0000 030a b091 287f   	<unknown>
     246: 2f00         	<unknown>
     248: 000002b7     	lui	t0, 0x0
     24c: 0700         	addi	s0, sp, 0x380
     24e: 4810         	lw	a2, 0x10(s0)
     250: 0000         	unimp
     252: 0100         	addi	s0, sp, 0x80
     254: 0d58         	addi	a4, sp, 0x294
     256: 4500         	lw	s0, 0x8(a0)
     258: 1109         	addi	sp, sp, -0x1e
     25a: 0038         	addi	a4, sp, 0x8
     25c: 0000         	unimp
     25e: 020a         	slli	tp, tp, 0x2
     260: 7491         	lui	s1, 0xfffe4
     262: 0029         	c.nop	0xa
     264: cd46         	sw	a7, 0x98(sp)
     266: 0002         	c.slli64	zero
     268: 0000         	unimp
     26a: 0c00         	addi	s0, sp, 0x210
     26c: 0a12         	slli	s4, s4, 0x4
     26e: 0000         	unimp
     270: 0100         	addi	s0, sp, 0x80
     272: 0e58         	addi	a4, sp, 0x314
     274: 4d00         	lw	s0, 0x18(a0)
     276: 00601307     	<unknown>
     27a: 0000         	unimp
     27c: 5801         	li	a6, -0x20
     27e: 0a57000f     	<unknown>
     282: 9102         	jalr	sp
     284: 1074         	addi	a3, sp, 0x2c
     286: 5a00         	lw	s0, 0x30(a2)
     288: 000002bb     	<unknown>
     28c: 1409         	addi	s0, s0, -0x1e
     28e: 0036         	c.slli	zero, 0xd
     290: 0000         	unimp
     292: 020a         	slli	tp, tp, 0x2
     294: 7091         	lui	ra, 0xfffe4
     296: 0011         	c.nop	0x4
     298: 0002c55b     	<unknown>
     29c: 0000         	unimp
     29e: 0d00         	addi	s0, sp, 0x290
     2a0: 080c         	addi	a1, sp, 0x10
     2a2: 0301         	c.addi	t1, 0x0
     2a4: 090e         	slli	s2, s2, 0x3
     2a6: 000002b7     	lui	t0, 0x0
     2aa: 0401         	c.addi	s0, 0x0
     2ac: 0e00         	addi	s0, sp, 0x310
     2ae: 0002b70b     	<unknown>
     2b2: 0100         	addi	s0, sp, 0x80
     2b4: 0405         	addi	s0, s0, 0x1
     2b6: 0500         	addi	s0, sp, 0x280
     2b8: 050a         	slli	a0, a0, 0x2
     2ba: 0f04         	addi	s1, sp, 0x390
     2bc: 02c0         	addi	s0, sp, 0x144
     2be: 0000         	unimp
     2c0: 3d10         	<unknown>
     2c2: 0000         	unimp
     2c4: 0500         	addi	s0, sp, 0x280
     2c6: 0512         	slli	a0, a0, 0x4
     2c8: 0504         	addi	s1, sp, 0x280
     2ca: 0716         	slli	a4, a4, 0x5
     2cc: 0f04         	addi	s1, sp, 0x390
     2ce: 003d         	c.nop	0xf
     2d0: 0000         	unimp
     2d2: 00           	<unknown>

Disassembly of section .debug_rnglists:

00000000 <.debug_rnglists>:
       0: 0000001b     	<unknown>
       4: 0005         	c.nop	0x1
       6: 0004         	<unknown>
       8: 0001         	nop
       a: 0000         	unimp
       c: 0004         	<unknown>
       e: 0000         	unimp
      10: 0a01         	c.addi	s4, 0x0
      12: 0004         	<unknown>
      14: 0594         	addi	a3, sp, 0x2c0
      16: 9404         	<unknown>
      18: f405         	bnez	s0, 0xffffff40 <__stack_top+0xffffffff7fcffbb8>
      1a: 0305         	addi	t1, t1, 0x1
      1c: 0a12         	slli	s4, s4, 0x4
      1e: 00           	<unknown>

Disassembly of section .debug_str_offsets:

00000000 <.debug_str_offsets>:
       0: 00ac         	addi	a1, sp, 0x48
       2: 0000         	unimp
       4: 0005         	c.nop	0x1
       6: 0000         	unimp
       8: 0088         	addi	a0, sp, 0x40
       a: 0000         	unimp
       c: 0000         	unimp
       e: 0000         	unimp
      10: 00dc         	addi	a5, sp, 0x44
      12: 0000         	unimp
      14: 006c         	addi	a1, sp, 0xc
      16: 0000         	unimp
      18: 000000bb     	<unknown>
      1c: 0114         	addi	a3, sp, 0x80
      1e: 0000         	unimp
      20: 0126         	slli	sp, sp, 0x9
      22: 0000         	unimp
      24: 0039         	c.nop	0xe
      26: 0000         	unimp
      28: 004e         	c.slli	zero, 0x13
      2a: 0000         	unimp
      2c: 0075         	c.nop	0x1d
      2e: 0000         	unimp
      30: 0009         	c.nop	0x2
      32: 0000         	unimp
      34: 0000007b     	<unknown>
      38: 00ad         	addi	ra, ra, 0xb
      3a: 0000         	unimp
      3c: 002a         	c.slli	zero, 0xa
      3e: 0000         	unimp
      40: 0059         	c.nop	0x16
      42: 0000         	unimp
      44: 000e         	c.slli	zero, 0x3
      46: 0000         	unimp
      48: 005e         	c.slli	zero, 0x17
      4a: 0000         	unimp
      4c: 001a         	c.slli	zero, 0x6
      4e: 0000         	unimp
      50: 0071         	c.nop	0x1c
      52: 0000         	unimp
      54: 012e         	slli	sp, sp, 0xb
      56: 0000         	unimp
      58: 0065         	c.nop	0x19
      5a: 0000         	unimp
      5c: 00000037     	lui	zero, 0x0
      60: 0106         	slli	sp, sp, 0x1
      62: 0000         	unimp
      64: 001c         	<unknown>
      66: 0000         	unimp
      68: 00a6         	slli	ra, ra, 0x9
      6a: 0000         	unimp
      6c: 000000d7     	<unknown>
      70: 0131         	addi	sp, sp, 0xc
      72: 0000         	unimp
      74: 0121         	addi	sp, sp, 0x8
      76: 0000         	unimp
      78: 00000043     	<unknown>
      7c: 0060         	addi	s0, sp, 0xc
      7e: 0000         	unimp
      80: 000000cf     	<unknown>
      84: 00b4         	addi	a3, sp, 0x48
      86: 0000         	unimp
      88: 0081         	c.addi	ra, 0x0
      8a: 0000         	unimp
      8c: 0085         	addi	ra, ra, 0x1
      8e: 0000         	unimp
      90: 00d4         	addi	a3, sp, 0x44
      92: 0000         	unimp
      94: 0000004b     	<unknown>
      98: 0034         	addi	a3, sp, 0x8
      9a: 0000         	unimp
      9c: 00b8         	addi	a4, sp, 0x48
      9e: 0000         	unimp
      a0: 00000027     	<unknown>
      a4: 0069         	c.nop	0x1a
      a6: 0000         	unimp
      a8: 0048         	addi	a0, sp, 0x4
      aa: 0000         	unimp
      ac: 00000057     	<unknown>

Disassembly of section .debug_str:

00000000 <.debug_str>:
       0: 6e72656b     	<unknown>
       4: 6c65         	lui	s8, 0x19
       6: 632e         	<unknown>
       8: 6c00         	<unknown>
       a: 00676e6f     	jal	t3, 0x76010 <.debug_info+0x76010>
       e: 6e72656b     	<unknown>
      12: 6c65         	lui	s8, 0x19
      14: 6d5f 6961 006e       	<unknown>
      1a: 0069         	c.nop	0x1a
      1c: 6568         	<unknown>
      1e: 5f78         	lw	a4, 0x7c(a4)
      20: 6964         	<unknown>
      22: 73746967     	<unknown>
      26: 6100         	<unknown>
      28: 0035         	c.nop	0xd
      2a: 61656c63     	bltu	a0, s6, 0x642 <.debug_info+0x642>
      2e: 5f72         	lw	t5, 0x3c(sp)
      30: 7362         	<unknown>
      32: 33610073     	<unknown>
      36: 6e00         	<unknown>
      38: 7000         	<unknown>
      3a: 6972         	<unknown>
      3c: 746e         	<unknown>
      3e: 685f 7865 6100       	<unknown>
      44: 6772         	<unknown>
      46: 37610033     	<unknown>
      4a: 6100         	<unknown>
      4c: 0032         	c.slli	zero, 0xc
      4e: 5f696273     	csrrsi	tp, 0x5f6, 0x12
      52: 6c6c6163     	bltu	s8, t1, 0x714 <.debug_info+0x714>
      56: 6200         	<unknown>
      58: 6200         	<unknown>
      5a: 00746f6f     	jal	t5, 0x46860 <.debug_info+0x46860>
      5e: 72610073     	<unknown>
      62: 72003467     	<unknown>
      66: 7465         	lui	s0, 0xffff9
      68: 6100         	<unknown>
      6a: 0036         	c.slli	zero, 0xd
      6c: 72616863     	bltu	sp, t1, 0x79c <.debug_info+0x79c>
      70: 6900         	<unknown>
      72: 746e         	<unknown>
      74: 6500         	<unknown>
      76: 7272         	<unknown>
      78: 7600726f     	jal	tp, 0x77d8 <.debug_info+0x77d8>
      7c: 6c61         	lui	s8, 0x18
      7e: 6575         	lui	a0, 0x1d
      80: 6500         	<unknown>
      82: 6469         	lui	s0, 0x1a
      84: 6100         	<unknown>
      86: 0030         	addi	a2, sp, 0x8
      88: 6f48         	<unknown>
      8a: 656d         	lui	a0, 0x1b
      8c: 7262         	<unknown>
      8e: 7765         	lui	a4, 0xffff9
      90: 6320         	<unknown>
      92: 616c         	<unknown>
      94: 676e         	<unknown>
      96: 7620         	<unknown>
      98: 7265         	lui	tp, 0xffff9
      9a: 6e6f6973     	csrrsi	s2, 0x6e6, 0x1e
      9e: 3120         	<unknown>
      a0: 2e39         	jal	0x3be <.debug_info+0x3be>
      a2: 2e31         	jal	0x3be <.debug_info+0x3be>
      a4: 75620037     	lui	zero, 0x75620
      a8: 6666         	<unknown>
      aa: 7265         	lui	tp, 0xffff9
      ac: 7300         	<unknown>
      ae: 6962         	<unknown>
      b0: 6572         	<unknown>
      b2: 0074         	addi	a3, sp, 0xc
      b4: 6966         	<unknown>
      b6: 0064         	addi	s1, sp, 0xc
      b8: 3461         	jal	0xfffffb40 <__stack_top+0xffffffff7fcff7b8>
      ba: 5f00         	lw	s0, 0x38(a4)
      bc: 415f 5252 5941       	<unknown>
      c2: 535f 5a49 5f45       	<unknown>
      c8: 5954         	lw	a3, 0x34(a0)
      ca: 4550         	lw	a2, 0xc(a0)
      cc: 5f5f 6100 6772       	<unknown>
      d2: 0035         	c.nop	0xd
      d4: 3161         	jal	0xfffffd5c <__stack_top+0xffffffff7fcff9d4>
      d6: 6100         	<unknown>
      d8: 6772         	<unknown>
      da: 0030         	addi	a2, sp, 0x8
      dc: 6573552f     	<unknown>
      e0: 7372         	<unknown>
      e2: 6968732f     	<unknown>
      e6: 7261686b     	<unknown>
      ea: 6c686f6b     	<unknown>
      ee: 2f69         	jal	0x888 <.debug_info+0x888>
      f0: 65646f63     	bltu	s0, s6, 0x74e <.debug_info+0x74e>
      f4: 6f68742f     	<unknown>
      f8: 7375         	lui	t1, 0xffffd
      fa: 6e61         	lui	t3, 0x18
      fc: 2d64         	<unknown>
      fe: 696c         	<unknown>
     100: 656e         	<unknown>
     102: 6f2d         	lui	t5, 0xb
     104: 6e750073     	<unknown>
     108: 6e676973     	csrrsi	s2, 0x6e6, 0xe
     10c: 6465         	lui	s0, 0x19
     10e: 6c20         	<unknown>
     110: 00676e6f     	jal	t3, 0x76116 <.debug_info+0x76116>
     114: 7270         	<unknown>
     116: 6e69         	lui	t3, 0x1a
     118: 5f74         	lw	a3, 0x7c(a4)
     11a: 69727473     	csrrci	s0, 0x697, 0x4
     11e: 676e         	<unknown>
     120: 6100         	<unknown>
     122: 6772         	<unknown>
     124: 0032         	c.slli	zero, 0xc
     126: 7570         	<unknown>
     128: 6374         	<unknown>
     12a: 6168         	<unknown>
     12c: 0072         	c.slli	zero, 0x1c
     12e: 61006863     	bltu	zero, a6, 0x73e <.debug_info+0x73e>
     132: 6772         	<unknown>
     134: 0031         	c.nop	0xc

Disassembly of section .debug_addr:

00000000 <.debug_addr>:
       0: 0058         	addi	a4, sp, 0x4
       2: 0000         	unimp
       4: 0005         	c.nop	0x1
       6: 0004         	<unknown>
       8: 0339         	addi	t1, t1, 0xe
       a: 8020         	<unknown>
       c: 0318         	addi	a4, sp, 0x180
       e: 8020         	<unknown>
      10: 036c         	addi	a1, sp, 0x18c
      12: 8020         	<unknown>
      14: 030e         	slli	t1, t1, 0x3
      16: 8020         	<unknown>
      18: 8020030b     	<unknown>
      1c: 0350         	addi	a2, sp, 0x184
      1e: 8020         	<unknown>
      20: 0352         	slli	t1, t1, 0x14
      22: 8020         	<unknown>
      24: 0300         	addi	s0, sp, 0x180
      26: 8020         	<unknown>
      28: 033c         	addi	a5, sp, 0x188
      2a: 8020         	<unknown>
      2c: 0329         	addi	t1, t1, 0xa
      2e: 8020         	<unknown>
      30: 000a         	c.slli	zero, 0x2
      32: 8020         	<unknown>
      34: 0018         	<unknown>
      36: 8020         	<unknown>
      38: 0056         	c.slli	zero, 0x15
      3a: 8020         	<unknown>
      3c: 0086         	slli	ra, ra, 0x1
      3e: 8020         	<unknown>
      40: 00ce         	slli	ra, ra, 0x13
      42: 8020         	<unknown>
      44: 012e         	slli	sp, sp, 0xb
      46: 8020         	<unknown>
      48: 0256         	slli	tp, tp, 0x15
      4a: 8020         	<unknown>
      4c: 025e         	slli	tp, tp, 0x17
      4e: 8020         	<unknown>
      50: 0000         	unimp
      52: 8020         	<unknown>
      54: 029e         	slli	t0, t0, 0x7
      56: 8020         	<unknown>
      58: 02c0         	addi	s0, sp, 0x144
      5a: 8020         	<unknown>

Disassembly of section .comment:

00000000 <.comment>:
       0: 4800         	lw	s0, 0x10(s0)
       2: 62656d6f     	jal	s10, 0x56628 <.debug_info+0x56628>
       6: 6572         	<unknown>
       8: 6c632077     	<unknown>
       c: 6e61         	lui	t3, 0x18
       e: 65762067     	<unknown>
      12: 7372         	<unknown>
      14: 6f69         	lui	t5, 0x1a
      16: 206e         	<unknown>
      18: 3931         	jal	0xfffffc34 <__stack_top+0xffffffff7fcff8ac>
      1a: 312e         	<unknown>
      1c: 372e         	<unknown>
      1e: 4c00         	lw	s0, 0x18(s0)
      20: 6e69         	lui	t3, 0x1a
      22: 3a72656b     	<unknown>
      26: 4820         	lw	s0, 0x50(s0)
      28: 62656d6f     	jal	s10, 0x5664e <.debug_info+0x5664e>
      2c: 6572         	<unknown>
      2e: 4c4c2077     	<unknown>
      32: 2044         	<unknown>
      34: 3931         	jal	0xfffffc50 <__stack_top+0xffffffff7fcff8c8>
      36: 312e         	<unknown>
      38: 372e         	<unknown>
      3a: 00           	<unknown>

Disassembly of section .riscv.attributes:

00000000 <.riscv.attributes>:
       0: 3341         	jal	0xfffffd80 <__stack_top+0xffffffff7fcff9f8>
       2: 0000         	unimp
       4: 7200         	<unknown>
       6: 7369         	lui	t1, 0xffffa
       8: 01007663     	bgeu	zero, a6, 0x14 <.debug_info+0x14>
       c: 0029         	c.nop	0xa
       e: 0000         	unimp
      10: 1004         	addi	s1, sp, 0x20
      12: 7205         	lui	tp, 0xfffe1
      14: 3376         	<unknown>
      16: 6932         	<unknown>
      18: 7032         	<unknown>
      1a: 5f31         	li	t5, -0x14
      1c: 326d         	jal	0xfffff9c6 <__stack_top+0xffffffff7fcff63e>
      1e: 3070         	<unknown>
      20: 615f 7032 5f31       	<unknown>
      26: 30703263     	<unknown>
      2a: 7a5f 6d6d 6c75       	<unknown>
      30: 7031         	c.lui	zero, -0x14
      32: 0030         	addi	a2, sp, 0x8

Disassembly of section .debug_frame:

00000000 <.debug_frame>:
       0: 0010         	<unknown>
       2: 0000         	unimp
       4: ff           	<unknown>
       5: ff           	<unknown>
       6: ff           	<unknown>
       7: 04ff 0400 0100 017c 020c     	<unknown>
      11: 0000         	unimp
      13: 1800         	addi	s0, sp, 0x30
      15: 0000         	unimp
      17: 0000         	unimp
      19: 0000         	unimp
      1b: 0a00         	addi	s0, sp, 0x110
      1d: 2000         	<unknown>
      1f: 4c80         	lw	s0, 0x18(s1)
      21: 0000         	unimp
      23: 4200         	lw	s0, 0x0(a2)
      25: 100e         	c.slli	zero, 0x23
      27: 8144         	<unknown>
      29: 8801         	andi	s0, s0, 0x0
      2b: 4202         	lw	tp, 0x0(sp)
      2d: 080c         	addi	a1, sp, 0x10
      2f: 1800         	addi	s0, sp, 0x30
      31: 0000         	unimp
      33: 0000         	unimp
      35: 0000         	unimp
      37: 5600         	lw	s0, 0x28(a2)
      39: 2000         	<unknown>
      3b: 3080         	<unknown>
      3d: 0000         	unimp
      3f: 4200         	lw	s0, 0x0(a2)
      41: 200e         	<unknown>
      43: 8144         	<unknown>
      45: 8801         	andi	s0, s0, 0x0
      47: 4202         	lw	tp, 0x0(sp)
      49: 080c         	addi	a1, sp, 0x10
      4b: 1800         	addi	s0, sp, 0x30
      4d: 0000         	unimp
      4f: 0000         	unimp
      51: 0000         	unimp
      53: 8600         	<unknown>
      55: 2000         	<unknown>
      57: a880         	<unknown>
      59: 0000         	unimp
      5b: 4200         	lw	s0, 0x0(a2)
      5d: 400e         	<unknown>
      5f: 8144         	<unknown>
      61: 8801         	andi	s0, s0, 0x0
      63: 4202         	lw	tp, 0x0(sp)
      65: 080c         	addi	a1, sp, 0x10
      67: 1800         	addi	s0, sp, 0x30
      69: 0000         	unimp
      6b: 0000         	unimp
      6d: 0000         	unimp
      6f: 2e00         	<unknown>
      71: 2001         	jal	0x71 <.debug_info+0x71>
      73: 2880         	<unknown>
      75: 0001         	nop
      77: 4200         	lw	s0, 0x0(a2)
      79: 600e         	<unknown>
      7b: 8144         	<unknown>
      7d: 8801         	andi	s0, s0, 0x0
      7f: 4202         	lw	tp, 0x0(sp)
      81: 080c         	addi	a1, sp, 0x10
      83: 1800         	addi	s0, sp, 0x30
      85: 0000         	unimp
      87: 0000         	unimp
      89: 0000         	unimp
      8b: 5600         	lw	s0, 0x28(a2)
      8d: 2002         	<unknown>
      8f: 4880         	lw	s0, 0x10(s1)
      91: 0000         	unimp
      93: 4200         	lw	s0, 0x0(a2)
      95: 100e         	c.slli	zero, 0x23
      97: 8144         	<unknown>
      99: 8801         	andi	s0, s0, 0x0
      9b: 4202         	lw	tp, 0x0(sp)
      9d: 080c         	addi	a1, sp, 0x10
      9f: 0c00         	addi	s0, sp, 0x210
		...
      a9: 2000         	<unknown>
      ab: 0a80         	addi	s0, sp, 0x150
      ad: 0000         	unimp
      af: 1800         	addi	s0, sp, 0x30
      b1: 0000         	unimp
      b3: 0000         	unimp
      b5: 0000         	unimp
      b7: 9e00         	<unknown>
      b9: 2002         	<unknown>
      bb: 6080         	<unknown>
      bd: 0000         	unimp
      bf: 4200         	lw	s0, 0x0(a2)
      c1: 100e         	c.slli	zero, 0x23
      c3: 8144         	<unknown>
      c5: 8801         	andi	s0, s0, 0x0
      c7: 4202         	lw	tp, 0x0(sp)
      c9: 080c         	addi	a1, sp, 0x10
      cb: 00           	<unknown>

Disassembly of section .debug_line:

00000000 <.debug_line>:
       0: 0496         	slli	s1, s1, 0x5
       2: 0000         	unimp
       4: 0005         	c.nop	0x1
       6: 0004         	<unknown>
       8: 0050         	addi	a2, sp, 0x4
       a: 0000         	unimp
       c: 0101         	c.addi	sp, 0x0
       e: fb01         	bnez	a4, 0xffffff1e <__stack_top+0xffffffff7fcffb96>
      10: 0d0e         	slli	s10, s10, 0x3
      12: 0100         	addi	s0, sp, 0x80
      14: 0101         	c.addi	sp, 0x0
      16: 0001         	nop
      18: 0000         	unimp
      1a: 0001         	nop
      1c: 0100         	addi	s0, sp, 0x80
      1e: 0101         	c.addi	sp, 0x0
      20: 021f 0014 0000       	<unknown>
      26: 0012         	c.slli	zero, 0x4
      28: 0000         	unimp
      2a: 021f0103     	lb	sp, 0x21(t5)
      2e: 021e050f     	<unknown>
      32: 0000         	unimp
      34: 0000         	unimp
      36: dc00         	sw	s0, 0x38(s0)
      38: 481c         	lw	a5, 0x10(s0)
      3a: 8aa0         	<unknown>
      3c: d1ba         	sw	a4, 0xe0(sp)
      3e: 5d5ede17     	auipc	t3, 0x5d5ed
      42: f734         	<unknown>
      44: 9df0         	<unknown>
      46: 098e         	slli	s3, s3, 0x3
      48: 0000         	unimp
      4a: 0100         	addi	s0, sp, 0x80
      4c: 7405         	lui	s0, 0xfffe1
      4e: dc79         	beqz	s0, 0x2c <.debug_line+0x2c>
      50: e594         	<unknown>
      52: 42c0         	lw	s0, 0x4(a3)
      54: d199         	beqz	a1, 0xffffff5a <__stack_top+0xffffffff7fcffbd2>
      56: 44d0         	lw	a2, 0xc(s1)
      58: 384212af     	<unknown>
      5c: 0004         	<unknown>
      5e: 0500         	addi	s0, sp, 0x280
      60: 0a02         	c.slli64	s4
      62: 2000         	<unknown>
      64: 1a80         	addi	s0, sp, 0x170
      66: 0e05         	addi	t3, t3, 0x1
      68: 030a         	slli	t1, t1, 0x2
      6a: 0901         	c.addi	s2, 0x0
      6c: 000e         	c.slli	zero, 0x3
      6e: 0501         	c.addi	a0, 0x0
      70: 060a         	slli	a2, a2, 0x2
      72: 04090003     	lb	zero, 0x40(s2)
      76: 0100         	addi	s0, sp, 0x80
      78: 1505         	addi	a0, a0, -0x1f
      7a: 02090003     	lb	zero, 0x20(s2)
      7e: 0100         	addi	s0, sp, 0x80
      80: 1705         	addi	a4, a4, -0x1f
      82: 04090003     	lb	zero, 0x40(s2)
      86: 0100         	addi	s0, sp, 0x80
      88: 1505         	addi	a0, a0, -0x1f
      8a: 04090003     	lb	zero, 0x40(s2)
      8e: 0100         	addi	s0, sp, 0x80
      90: 0505         	addi	a0, a0, 0x1
      92: 06090003     	lb	zero, 0x60(s2)
      96: 0100         	addi	s0, sp, 0x80
      98: 1105         	addi	sp, sp, -0x1f
      9a: 0306         	slli	t1, t1, 0x1
      9c: 0901         	c.addi	s2, 0x0
      9e: 0004         	<unknown>
      a0: 0501         	c.addi	a0, 0x0
      a2: 00030613     	mv	a2, t1
      a6: 0409         	addi	s0, s0, 0x2
      a8: 0100         	addi	s0, sp, 0x80
      aa: 1105         	addi	sp, sp, -0x1f
      ac: 04090003     	lb	zero, 0x40(s2)
      b0: 0100         	addi	s0, sp, 0x80
      b2: 0905         	addi	s2, s2, 0x1
      b4: 06090003     	lb	zero, 0x60(s2)
      b8: 0100         	addi	s0, sp, 0x80
      ba: 0505         	addi	a0, a0, 0x1
      bc: 0306         	slli	t1, t1, 0x1
      be: 0901         	c.addi	s2, 0x0
      c0: 0002         	c.slli64	zero
      c2: 0501         	c.addi	a0, 0x0
      c4: 0324         	addi	s1, sp, 0x188
      c6: 097e         	slli	s2, s2, 0x1f
      c8: 0002         	c.slli64	zero
      ca: 0501         	c.addi	a0, 0x0
      cc: 0605         	addi	a2, a2, 0x1
      ce: 0a090003     	lb	zero, 0xa0(s2)
      d2: 0100         	addi	s0, sp, 0x80
      d4: 02097603     	<unknown>
      d8: 0100         	addi	s0, sp, 0x80
      da: 0105         	addi	sp, sp, 0x1
      dc: 0b06         	slli	s6, s6, 0x1
      de: 04090d03     	lb	s10, 0x40(s2)
      e2: 0100         	addi	s0, sp, 0x80
      e4: 0005         	c.nop	0x1
      e6: 04093303     	<unknown>
      ea: 0100         	addi	s0, sp, 0x80
      ec: 2205         	jal	0x20c <.debug_line+0x20c>
      ee: 030a         	slli	t1, t1, 0x2
      f0: 0902         	c.slli64	s2
      f2: 000c         	<unknown>
      f4: 0501         	c.addi	a0, 0x0
      f6: 0619         	addi	a2, a2, 0x6
      f8: 08090003     	lb	zero, 0x80(s2)
      fc: 0100         	addi	s0, sp, 0x80
      fe: 0105         	addi	sp, sp, 0x1
     100: 0b06         	slli	s6, s6, 0x1
     102: 18090103     	lb	sp, 0x180(s2)
     106: 0100         	addi	s0, sp, 0x80
     108: 0005         	c.nop	0x1
     10a: 04094d03     	lbu	s10, 0x40(s2)
     10e: 0100         	addi	s0, sp, 0x80
     110: 0a05         	addi	s4, s4, 0x1
     112: 030a         	slli	t1, t1, 0x2
     114: 0901         	c.addi	s2, 0x0
     116: 000e         	c.slli	zero, 0x3
     118: 0501         	c.addi	a0, 0x0
     11a: 0310         	addi	a2, sp, 0x180
     11c: 0902         	c.slli64	s2
     11e: 0034         	addi	a3, sp, 0x8
     120: 0501         	c.addi	a0, 0x0
     122: 030e         	slli	t1, t1, 0x3
     124: 0901         	c.addi	s2, 0x0
     126: 0006         	c.slli	zero, 0x1
     128: 0501         	c.addi	a0, 0x0
     12a: 060a         	slli	a2, a2, 0x2
     12c: 04090003     	lb	zero, 0x40(s2)
     130: 0100         	addi	s0, sp, 0x80
     132: 1605         	addi	a2, a2, -0x1f
     134: 02090003     	lb	zero, 0x20(s2)
     138: 0100         	addi	s0, sp, 0x80
     13a: 0505         	addi	a0, a0, 0x1
     13c: 04090003     	lb	zero, 0x40(s2)
     140: 0100         	addi	s0, sp, 0x80
     142: 2005         	jal	0x162 <.debug_line+0x162>
     144: 0306         	slli	t1, t1, 0x1
     146: 0901         	c.addi	s2, 0x0
     148: 0006         	c.slli	zero, 0x1
     14a: 0501         	c.addi	a0, 0x0
     14c: 0622         	slli	a2, a2, 0x8
     14e: 04090003     	lb	zero, 0x40(s2)
     152: 0100         	addi	s0, sp, 0x80
     154: 1505         	addi	a0, a0, -0x1f
     156: 08090003     	lb	zero, 0x80(s2)
     15a: 0100         	addi	s0, sp, 0x80
     15c: 1005         	c.nop	-0x1f
     15e: 06090003     	lb	zero, 0x60(s2)
     162: 0100         	addi	s0, sp, 0x80
     164: 0905         	addi	s2, s2, 0x1
     166: 08090003     	lb	zero, 0x80(s2)
     16a: 0100         	addi	s0, sp, 0x80
     16c: 1305         	addi	t1, t1, -0x1f
     16e: 02090003     	lb	zero, 0x20(s2)
     172: 0100         	addi	s0, sp, 0x80
     174: 0b05         	addi	s6, s6, 0x1
     176: 0306         	slli	t1, t1, 0x1
     178: 0901         	c.addi	s2, 0x0
     17a: 0004         	<unknown>
     17c: 0501         	c.addi	a0, 0x0
     17e: 0305         	addi	t1, t1, 0x1
     180: 0901         	c.addi	s2, 0x0
     182: 000a         	c.slli	zero, 0x2
     184: 0501         	c.addi	a0, 0x0
     186: 031f 097d 0002       	<unknown>
     18c: 0501         	c.addi	a0, 0x0
     18e: 0605         	addi	a2, a2, 0x1
     190: 0a090003     	lb	zero, 0xa0(s2)
     194: 0100         	addi	s0, sp, 0x80
     196: 0306         	slli	t1, t1, 0x1
     198: 0904         	addi	s1, sp, 0x90
     19a: 0002         	c.slli64	zero
     19c: 0301         	c.addi	t1, 0x0
     19e: 0901         	c.addi	s2, 0x0
     1a0: 000e         	c.slli	zero, 0x3
     1a2: 0501         	c.addi	a0, 0x0
     1a4: 0b01         	c.addi	s6, 0x0
     1a6: 06090103     	lb	sp, 0x60(s2)
     1aa: 0100         	addi	s0, sp, 0x80
     1ac: 0005         	c.nop	0x1
     1ae: 04090303     	lb	t1, 0x40(s2)
     1b2: 0100         	addi	s0, sp, 0x80
     1b4: 0505         	addi	a0, a0, 0x1
     1b6: 030a         	slli	t1, t1, 0x2
     1b8: 0901         	c.addi	s2, 0x0
     1ba: 0028         	addi	a0, sp, 0x8
     1bc: 0501         	c.addi	a0, 0x0
     1be: 0901030f     	<unknown>
     1c2: 000a         	c.slli	zero, 0x2
     1c4: 0501         	c.addi	a0, 0x0
     1c6: 0605         	addi	a2, a2, 0x1
     1c8: 04090003     	lb	zero, 0x40(s2)
     1cc: 0100         	addi	s0, sp, 0x80
     1ce: 0306         	slli	t1, t1, 0x1
     1d0: 0901         	c.addi	s2, 0x0
     1d2: 0002         	c.slli64	zero
     1d4: 0501         	c.addi	a0, 0x0
     1d6: 0901030f     	<unknown>
     1da: 000a         	c.slli	zero, 0x2
     1dc: 0501         	c.addi	a0, 0x0
     1de: 0605         	addi	a2, a2, 0x1
     1e0: 04090003     	lb	zero, 0x40(s2)
     1e4: 0100         	addi	s0, sp, 0x80
     1e6: 0306         	slli	t1, t1, 0x1
     1e8: 0901         	c.addi	s2, 0x0
     1ea: 0002         	c.slli64	zero
     1ec: 0501         	c.addi	a0, 0x0
     1ee: 0901030f     	<unknown>
     1f2: 000a         	c.slli	zero, 0x2
     1f4: 0501         	c.addi	a0, 0x0
     1f6: 0605         	addi	a2, a2, 0x1
     1f8: 04090003     	lb	zero, 0x40(s2)
     1fc: 0100         	addi	s0, sp, 0x80
     1fe: 0306         	slli	t1, t1, 0x1
     200: 0901         	c.addi	s2, 0x0
     202: 0002         	c.slli64	zero
     204: 0501         	c.addi	a0, 0x0
     206: 0901030f     	<unknown>
     20a: 000a         	c.slli	zero, 0x2
     20c: 0501         	c.addi	a0, 0x0
     20e: 0605         	addi	a2, a2, 0x1
     210: 04090003     	lb	zero, 0x40(s2)
     214: 0100         	addi	s0, sp, 0x80
     216: 0306         	slli	t1, t1, 0x1
     218: 0901         	c.addi	s2, 0x0
     21a: 0002         	c.slli64	zero
     21c: 0501         	c.addi	a0, 0x0
     21e: 0326         	slli	t1, t1, 0x9
     220: 0902         	c.slli64	s2
     222: 000e         	c.slli	zero, 0x3
     224: 0501         	c.addi	a0, 0x0
     226: 00030613     	mv	a2, t1
     22a: 0409         	addi	s0, s0, 0x2
     22c: 0100         	addi	s0, sp, 0x80
     22e: 2605         	jal	0x54e <.debug_line+0x54e>
     230: 0306         	slli	t1, t1, 0x1
     232: 0901         	c.addi	s2, 0x0
     234: 0004         	<unknown>
     236: 0501         	c.addi	a0, 0x0
     238: 00030613     	mv	a2, t1
     23c: 0409         	addi	s0, s0, 0x2
     23e: 0100         	addi	s0, sp, 0x80
     240: 2605         	jal	0x560 <.debug_line+0x560>
     242: 0306         	slli	t1, t1, 0x1
     244: 0901         	c.addi	s2, 0x0
     246: 0004         	<unknown>
     248: 0501         	c.addi	a0, 0x0
     24a: 00030613     	mv	a2, t1
     24e: 0409         	addi	s0, s0, 0x2
     250: 0100         	addi	s0, sp, 0x80
     252: 2605         	jal	0x572 <.debug_line+0x572>
     254: 0306         	slli	t1, t1, 0x1
     256: 0901         	c.addi	s2, 0x0
     258: 0004         	<unknown>
     25a: 0501         	c.addi	a0, 0x0
     25c: 00030613     	mv	a2, t1
     260: 0409         	addi	s0, s0, 0x2
     262: 0100         	addi	s0, sp, 0x80
     264: 2605         	jal	0x584 <.debug_line+0x584>
     266: 0306         	slli	t1, t1, 0x1
     268: 0901         	c.addi	s2, 0x0
     26a: 0004         	<unknown>
     26c: 0501         	c.addi	a0, 0x0
     26e: 00030613     	mv	a2, t1
     272: 0409         	addi	s0, s0, 0x2
     274: 0100         	addi	s0, sp, 0x80
     276: 2605         	jal	0x596 <.debug_line+0x596>
     278: 0306         	slli	t1, t1, 0x1
     27a: 0901         	c.addi	s2, 0x0
     27c: 0004         	<unknown>
     27e: 0501         	c.addi	a0, 0x0
     280: 00030613     	mv	a2, t1
     284: 0409         	addi	s0, s0, 0x2
     286: 0100         	addi	s0, sp, 0x80
     288: 2605         	jal	0x5a8 <.debug_line+0x5a8>
     28a: 0306         	slli	t1, t1, 0x1
     28c: 0901         	c.addi	s2, 0x0
     28e: 0004         	<unknown>
     290: 0501         	c.addi	a0, 0x0
     292: 00030613     	mv	a2, t1
     296: 0409         	addi	s0, s0, 0x2
     298: 0100         	addi	s0, sp, 0x80
     29a: 2605         	jal	0x5ba <.debug_line+0x5ba>
     29c: 0306         	slli	t1, t1, 0x1
     29e: 0901         	c.addi	s2, 0x0
     2a0: 0004         	<unknown>
     2a2: 0501         	c.addi	a0, 0x0
     2a4: 00030613     	mv	a2, t1
     2a8: 0409         	addi	s0, s0, 0x2
     2aa: 0100         	addi	s0, sp, 0x80
     2ac: 2005         	jal	0x2cc <.debug_line+0x2cc>
     2ae: 0306         	slli	t1, t1, 0x1
     2b0: 0904         	addi	s1, sp, 0x90
     2b2: 0004         	<unknown>
     2b4: 0501         	c.addi	a0, 0x0
     2b6: 0629         	addi	a2, a2, 0xa
     2b8: 04090003     	lb	zero, 0x40(s2)
     2bc: 0100         	addi	s0, sp, 0x80
     2be: 3205         	jal	0xfffffbde <__stack_top+0xffffffff7fcff856>
     2c0: 04090003     	lb	zero, 0x40(s2)
     2c4: 0100         	addi	s0, sp, 0x80
     2c6: 3b05         	jal	0xfffffff6 <__stack_top+0xffffffff7fcffc6e>
     2c8: 04090003     	lb	zero, 0x40(s2)
     2cc: 0100         	addi	s0, sp, 0x80
     2ce: 4405         	li	s0, 0x1
     2d0: 04090003     	lb	zero, 0x40(s2)
     2d4: 0100         	addi	s0, sp, 0x80
     2d6: 4d05         	li	s10, 0x1
     2d8: 04090003     	lb	zero, 0x40(s2)
     2dc: 0100         	addi	s0, sp, 0x80
     2de: 2005         	jal	0x2fe <.debug_line+0x2fe>
     2e0: 0306         	slli	t1, t1, 0x1
     2e2: 0901         	c.addi	s2, 0x0
     2e4: 0004         	<unknown>
     2e6: 0501         	c.addi	a0, 0x0
     2e8: 0629         	addi	a2, a2, 0xa
     2ea: 04090003     	lb	zero, 0x40(s2)
     2ee: 0100         	addi	s0, sp, 0x80
     2f0: 0505         	addi	a0, a0, 0x1
     2f2: 0306         	slli	t1, t1, 0x1
     2f4: 097d         	addi	s2, s2, 0x1f
     2f6: 0004         	<unknown>
     2f8: 0301         	c.addi	t1, 0x0
     2fa: 0906         	slli	s2, s2, 0x1
     2fc: 000c         	<unknown>
     2fe: 0501         	c.addi	a0, 0x0
     300: 0901030f     	<unknown>
     304: 000a         	c.slli	zero, 0x2
     306: 0501         	c.addi	a0, 0x0
     308: 0605         	addi	a2, a2, 0x1
     30a: 04090003     	lb	zero, 0x40(s2)
     30e: 0100         	addi	s0, sp, 0x80
     310: 0306         	slli	t1, t1, 0x1
     312: 0901         	c.addi	s2, 0x0
     314: 0002         	c.slli64	zero
     316: 0501         	c.addi	a0, 0x0
     318: 0901030f     	<unknown>
     31c: 000a         	c.slli	zero, 0x2
     31e: 0501         	c.addi	a0, 0x0
     320: 0605         	addi	a2, a2, 0x1
     322: 04090003     	lb	zero, 0x40(s2)
     326: 0100         	addi	s0, sp, 0x80
     328: 0306         	slli	t1, t1, 0x1
     32a: 0901         	c.addi	s2, 0x0
     32c: 0006         	c.slli	zero, 0x1
     32e: 0501         	c.addi	a0, 0x0
     330: 0325         	addi	t1, t1, 0x9
     332: 0902         	c.slli64	s2
     334: 0002         	c.slli64	zero
     336: 0501         	c.addi	a0, 0x0
     338: 0003061b     	<unknown>
     33c: 0409         	addi	s0, s0, 0x2
     33e: 0100         	addi	s0, sp, 0x80
     340: 3205         	jal	0xfffffc60 <__stack_top+0xffffffff7fcff8d8>
     342: 04090003     	lb	zero, 0x40(s2)
     346: 0100         	addi	s0, sp, 0x80
     348: 1b05         	addi	s6, s6, -0x1f
     34a: 04090003     	lb	zero, 0x40(s2)
     34e: 0100         	addi	s0, sp, 0x80
     350: 0505         	addi	a0, a0, 0x1
     352: 04090003     	lb	zero, 0x40(s2)
     356: 0100         	addi	s0, sp, 0x80
     358: 0900030b     	<unknown>
     35c: 000c         	<unknown>
     35e: 0501         	c.addi	a0, 0x0
     360: 0600         	addi	s0, sp, 0x300
     362: 04090803     	lb	a6, 0x40(s2)
     366: 0100         	addi	s0, sp, 0x80
     368: 1005         	c.nop	-0x1f
     36a: 030a         	slli	t1, t1, 0x2
     36c: 0901         	c.addi	s2, 0x0
     36e: 0008         	<unknown>
     370: 0501         	c.addi	a0, 0x0
     372: 060a         	slli	a2, a2, 0x2
     374: 0c090003     	lb	zero, 0xc0(s2)
     378: 0100         	addi	s0, sp, 0x80
     37a: 1b05         	addi	s6, s6, -0x1f
     37c: 02090003     	lb	zero, 0x20(s2)
     380: 0100         	addi	s0, sp, 0x80
     382: 1d05         	addi	s10, s10, -0x1f
     384: 04090003     	lb	zero, 0x40(s2)
     388: 0100         	addi	s0, sp, 0x80
     38a: 0505         	addi	a0, a0, 0x1
     38c: 08090003     	lb	zero, 0x80(s2)
     390: 0100         	addi	s0, sp, 0x80
     392: 0a05         	addi	s4, s4, 0x1
     394: 0306         	slli	t1, t1, 0x1
     396: 0901         	c.addi	s2, 0x0
     398: 0006         	c.slli	zero, 0x1
     39a: 0501         	c.addi	a0, 0x0
     39c: 060c         	addi	a1, sp, 0x300
     39e: 06090003     	lb	zero, 0x60(s2)
     3a2: 0100         	addi	s0, sp, 0x80
     3a4: 0505         	addi	a0, a0, 0x1
     3a6: 0306         	slli	t1, t1, 0x1
     3a8: 0901         	c.addi	s2, 0x0
     3aa: 0004         	<unknown>
     3ac: 0501         	c.addi	a0, 0x0
     3ae: 097e032b     	<unknown>
     3b2: 0002         	c.slli64	zero
     3b4: 0501         	c.addi	a0, 0x0
     3b6: 0605         	addi	a2, a2, 0x1
     3b8: 0a090003     	lb	zero, 0xa0(s2)
     3bc: 0100         	addi	s0, sp, 0x80
     3be: 097fba03     	<unknown>
     3c2: 0002         	c.slli64	zero
     3c4: 0501         	c.addi	a0, 0x0
     3c6: 0601         	c.addi	a2, 0x0
     3c8: 00c9030b     	<unknown>
     3cc: 0409         	addi	s0, s0, 0x2
     3ce: 0100         	addi	s0, sp, 0x80
     3d0: 0409         	addi	s0, s0, 0x2
     3d2: 0000         	unimp
     3d4: 0101         	c.addi	sp, 0x0
     3d6: 0004         	<unknown>
     3d8: 0500         	addi	s0, sp, 0x280
     3da: 9e02         	jalr	t3
     3dc: 2002         	<unknown>
     3de: 0380         	addi	s0, sp, 0x1c0
     3e0: 00d6         	slli	ra, ra, 0x15
     3e2: 0501         	c.addi	a0, 0x0
     3e4: 0a05         	addi	s4, s4, 0x1
     3e6: 08090103     	lb	sp, 0x80(s2)
     3ea: 0100         	addi	s0, sp, 0x80
     3ec: 0a090103     	lb	sp, 0xa0(s2)
     3f0: 0100         	addi	s0, sp, 0x80
     3f2: 1105         	addi	sp, sp, -0x1f
     3f4: 02090103     	lb	sp, 0x20(s2)
     3f8: 0100         	addi	s0, sp, 0x80
     3fa: 0e05         	addi	t3, t3, 0x1
     3fc: 0e090103     	lb	sp, 0xe0(s2)
     400: 0100         	addi	s0, sp, 0x80
     402: 0a05         	addi	s4, s4, 0x1
     404: 0306         	slli	t1, t1, 0x1
     406: 0900         	addi	s0, sp, 0x90
     408: 0004         	<unknown>
     40a: 0501         	c.addi	a0, 0x0
     40c: 0315         	addi	t1, t1, 0x5
     40e: 0900         	addi	s0, sp, 0x90
     410: 0002         	c.slli64	zero
     412: 0501         	c.addi	a0, 0x0
     414: 09000317     	auipc	t1, 0x9000
     418: 0004         	<unknown>
     41a: 0501         	c.addi	a0, 0x0
     41c: 0315         	addi	t1, t1, 0x5
     41e: 0900         	addi	s0, sp, 0x90
     420: 0004         	<unknown>
     422: 0501         	c.addi	a0, 0x0
     424: 0305         	addi	t1, t1, 0x1
     426: 0900         	addi	s0, sp, 0x90
     428: 0006         	c.slli	zero, 0x1
     42a: 0501         	c.addi	a0, 0x0
     42c: 0611         	addi	a2, a2, 0x4
     42e: 04090103     	lb	sp, 0x40(s2)
     432: 0100         	addi	s0, sp, 0x80
     434: 1305         	addi	t1, t1, -0x1f
     436: 0306         	slli	t1, t1, 0x1
     438: 0900         	addi	s0, sp, 0x90
     43a: 0004         	<unknown>
     43c: 0501         	c.addi	a0, 0x0
     43e: 0311         	addi	t1, t1, 0x4
     440: 0900         	addi	s0, sp, 0x90
     442: 0004         	<unknown>
     444: 0501         	c.addi	a0, 0x0
     446: 0309         	addi	t1, t1, 0x2
     448: 0900         	addi	s0, sp, 0x90
     44a: 0006         	c.slli	zero, 0x1
     44c: 0501         	c.addi	a0, 0x0
     44e: 0605         	addi	a2, a2, 0x1
     450: 02090103     	lb	sp, 0x20(s2)
     454: 0100         	addi	s0, sp, 0x80
     456: 2405         	jal	0x676 <.debug_line+0x676>
     458: 02097e03     	<unknown>
     45c: 0100         	addi	s0, sp, 0x80
     45e: 0505         	addi	a0, a0, 0x1
     460: 0306         	slli	t1, t1, 0x1
     462: 0900         	addi	s0, sp, 0x90
     464: 000a         	c.slli	zero, 0x2
     466: 0601         	c.addi	a2, 0x0
     468: 02090403     	lb	s0, 0x20(s2)
     46c: 0100         	addi	s0, sp, 0x80
     46e: 0905         	addi	s2, s2, 0x1
     470: 02090103     	lb	sp, 0x20(s2)
     474: 0100         	addi	s0, sp, 0x80
     476: 0505         	addi	a0, a0, 0x1
     478: 04097f03     	<unknown>
     47c: 0100         	addi	s0, sp, 0x80
     47e: 0209         	addi	tp, tp, 0x2
     480: 0000         	unimp
     482: 0101         	c.addi	sp, 0x0
     484: 0004         	<unknown>
     486: 0505         	addi	a0, a0, 0x1
     488: 000a         	c.slli	zero, 0x2
     48a: 0205         	addi	tp, tp, 0x1
     48c: 0000         	unimp
     48e: 8020         	<unknown>
     490: 0100cd03     	lbu	s10, 0x10(ra)
     494: 0a09         	addi	s4, s4, 0x2
     496: 0000         	unimp
     498: 0101         	c.addi	sp, 0x0

Disassembly of section .debug_line_str:

00000000 <.debug_line_str>:
       0: 6e72656b     	<unknown>
       4: 6c65         	lui	s8, 0x19
       6: 632e         	<unknown>
       8: 6b00         	<unknown>
       a: 7265         	lui	tp, 0xffff9
       c: 656e         	<unknown>
       e: 2e6c         	<unknown>
      10: 0068         	addi	a0, sp, 0xc
      12: 002e         	c.slli	zero, 0xb
      14: 6573552f     	<unknown>
      18: 7372         	<unknown>
      1a: 6968732f     	<unknown>
      1e: 7261686b     	<unknown>
      22: 6c686f6b     	<unknown>
      26: 2f69         	jal	0x7c0 <.debug_line+0x7c0>
      28: 65646f63     	bltu	s0, s6, 0x686 <.debug_line+0x686>
      2c: 6f68742f     	<unknown>
      30: 7375         	lui	t1, 0xffffd
      32: 6e61         	lui	t3, 0x18
      34: 2d64         	<unknown>
      36: 696c         	<unknown>
      38: 656e         	<unknown>
      3a: 6f2d         	lui	t5, 0xb
      3c: 73           	<unknown>
      3d: 00           	<unknown>

Disassembly of section .symtab:

00000000 <.symtab>:
		...
      10: 0001         	nop
		...
      1a: 0000         	unimp
      1c: 0004         	<unknown>
      1e: fff1         	bnez	a5, 0xfffffffa <__stack_top+0xffffffff7fcffc72>
      20: 000a         	c.slli	zero, 0x2
      22: 0000         	unimp
      24: 000a         	c.slli	zero, 0x2
      26: 8020         	<unknown>
      28: 0000         	unimp
      2a: 0000         	unimp
      2c: 0000         	unimp
      2e: 0001         	nop
      30: 000d         	c.nop	0x3
      32: 0000         	unimp
      34: 0000         	unimp
      36: 8020         	<unknown>
      38: 0000         	unimp
      3a: 0000         	unimp
      3c: 0000         	unimp
      3e: 0001         	nop
      40: 0010         	<unknown>
      42: 0000         	unimp
      44: 0375         	addi	t1, t1, 0x1d
      46: 8020         	<unknown>
      48: 0000         	unimp
      4a: 0000         	unimp
      4c: 0000         	unimp
      4e: 0002         	c.slli64	zero
      50: 00000013     	nop
		...
      5c: 0000         	unimp
      5e: 0004         	<unknown>
      60: 0016         	c.slli	zero, 0x5
		...
      6e: 0005         	c.nop	0x1
      70: 0019         	c.nop	0x6
		...
      7e: 0006         	c.slli	zero, 0x1
      80: 001c         	<unknown>
		...
      8e: 001f0007     	<unknown>
      92: 0000         	unimp
      94: 0088         	addi	a0, sp, 0x40
		...
      9e: 0008         	<unknown>
      a0: 0022         	c.slli	zero, 0x8
		...
      ae: 0009         	c.nop	0x2
      b0: 0025         	c.nop	0x9
		...
      be: 000a         	c.slli	zero, 0x2
      c0: 0028         	addi	a0, sp, 0x8
		...
      ce: fff1         	bnez	a5, 0xaa <.debug_line+0xaa>
      d0: 0000002b     	<unknown>
		...
      dc: 0000         	unimp
      de: 000c         	<unknown>
      e0: 002e         	c.slli	zero, 0xb
		...
      ee: 000d         	c.nop	0x3
      f0: 0031         	c.nop	0xc
      f2: 0000         	unimp
      f4: 0014         	<unknown>
		...
      fe: 000e         	c.slli	zero, 0x3
     100: 0034         	addi	a3, sp, 0x8
     102: 0000         	unimp
     104: 000a         	c.slli	zero, 0x2
     106: 8020         	<unknown>
     108: 004c         	addi	a1, sp, 0x4
     10a: 0000         	unimp
     10c: 0012         	c.slli	zero, 0x4
     10e: 0001         	nop
     110: 0041         	c.nop	0x10
     112: 0000         	unimp
     114: 0056         	c.slli	zero, 0x15
     116: 8020         	<unknown>
     118: 0030         	addi	a2, sp, 0x8
     11a: 0000         	unimp
     11c: 0012         	c.slli	zero, 0x4
     11e: 0001         	nop
     120: 0049         	c.nop	0x12
     122: 0000         	unimp
     124: 012e         	slli	sp, sp, 0xb
     126: 8020         	<unknown>
     128: 0128         	addi	a0, sp, 0x88
     12a: 0000         	unimp
     12c: 0012         	c.slli	zero, 0x4
     12e: 0001         	nop
     130: 0052         	c.slli	zero, 0x14
     132: 0000         	unimp
     134: 0086         	slli	ra, ra, 0x1
     136: 8020         	<unknown>
     138: 00a8         	addi	a0, sp, 0x48
     13a: 0000         	unimp
     13c: 0012         	c.slli	zero, 0x4
     13e: 0001         	nop
     140: 005c         	addi	a5, sp, 0x4
     142: 0000         	unimp
     144: 0256         	slli	tp, tp, 0x15
     146: 8020         	<unknown>
     148: 0048         	addi	a0, sp, 0x4
     14a: 0000         	unimp
     14c: 0012         	c.slli	zero, 0x4
     14e: 0001         	nop
     150: 0066         	c.slli	zero, 0x19
     152: 0000         	unimp
     154: 0388         	addi	a0, sp, 0x1c0
     156: 8020         	<unknown>
     158: 0000         	unimp
     15a: 0000         	unimp
     15c: 0010         	<unknown>
     15e: 006c0003     	lb	zero, 0x6(s8)
     162: 0000         	unimp
     164: 0388         	addi	a0, sp, 0x1c0
     166: 8020         	<unknown>
     168: 0000         	unimp
     16a: 0000         	unimp
     16c: 0010         	<unknown>
     16e: 00760003     	lb	zero, 0x7(a2)
     172: 0000         	unimp
     174: 0000         	unimp
     176: 8020         	<unknown>
     178: 000a         	c.slli	zero, 0x2
     17a: 0000         	unimp
     17c: 0012         	c.slli	zero, 0x4
     17e: 0001         	nop
     180: 0000007b     	<unknown>
     184: 0388         	addi	a0, sp, 0x1c0
     186: 8030         	<unknown>
     188: 0000         	unimp
     18a: 0000         	unimp
     18c: 0010         	<unknown>
     18e: 00870003     	lb	zero, 0x8(a4)
     192: 0000         	unimp
     194: 029e         	slli	t0, t0, 0x7
     196: 8020         	<unknown>
     198: 0060         	addi	s0, sp, 0xc
     19a: 0000         	unimp
     19c: 0012         	c.slli	zero, 0x4
     19e: 0001         	nop

Disassembly of section .shstrtab:

00000000 <.shstrtab>:
       0: 2e00         	<unknown>
       2: 6574         	<unknown>
       4: 7478         	<unknown>
       6: 2e00         	<unknown>
       8: 6f72         	<unknown>
       a: 6164         	<unknown>
       c: 6174         	<unknown>
       e: 2e00         	<unknown>
      10: 7362         	<unknown>
      12: 642e0073     	<unknown>
      16: 6265         	lui	tp, 0x19
      18: 6775         	lui	a4, 0x1d
      1a: 615f 6262 6572       	<unknown>
      20: 0076         	c.slli	zero, 0x1d
      22: 642e         	<unknown>
      24: 6265         	lui	tp, 0x19
      26: 6775         	lui	a4, 0x1d
      28: 695f 666e 006f       	<unknown>
      2e: 642e         	<unknown>
      30: 6265         	lui	tp, 0x19
      32: 6775         	lui	a4, 0x1d
      34: 725f 676e 696c       	<unknown>
      3a: 00737473     	csrrci	s0, 0x7, 0x6
      3e: 642e         	<unknown>
      40: 6265         	lui	tp, 0x19
      42: 6775         	lui	a4, 0x1d
      44: 735f 7274 6f5f       	<unknown>
      4a: 6666         	<unknown>
      4c: 73746573     	csrrsi	a0, mhpmevent23h, 0x8
      50: 2e00         	<unknown>
      52: 6564         	<unknown>
      54: 7562         	<unknown>
      56: 74735f67     	<unknown>
      5a: 0072         	c.slli	zero, 0x1c
      5c: 642e         	<unknown>
      5e: 6265         	lui	tp, 0x19
      60: 6775         	lui	a4, 0x1d
      62: 615f 6464 0072       	<unknown>
      68: 632e         	<unknown>
      6a: 656d6d6f     	jal	s10, 0xd66c0 <.debug_line+0xd66c0>
      6e: 746e         	<unknown>
      70: 2e00         	<unknown>
      72: 6972         	<unknown>
      74: 2e766373     	csrrsi	t1, 0x2e7, 0xc
      78: 7461         	lui	s0, 0xffff8
      7a: 7274         	<unknown>
      7c: 6269         	lui	tp, 0x1a
      7e: 7475         	lui	s0, 0xffffd
      80: 7365         	lui	t1, 0xffff9
      82: 2e00         	<unknown>
      84: 6564         	<unknown>
      86: 7562         	<unknown>
      88: 72665f67     	<unknown>
      8c: 6d61         	lui	s10, 0x18
      8e: 0065         	c.nop	0x19
      90: 642e         	<unknown>
      92: 6265         	lui	tp, 0x19
      94: 6775         	lui	a4, 0x1d
      96: 6c5f 6e69 0065       	<unknown>
      9c: 642e         	<unknown>
      9e: 6265         	lui	tp, 0x19
      a0: 6775         	lui	a4, 0x1d
      a2: 6c5f 6e69 5f65       	<unknown>
      a8: 00727473     	csrrci	s0, 0x7, 0x4
      ac: 732e         	<unknown>
      ae: 6d79         	lui	s10, 0x1e
      b0: 6174         	<unknown>
      b2: 0062         	c.slli	zero, 0x18
      b4: 732e         	<unknown>
      b6: 7368         	<unknown>
      b8: 7274         	<unknown>
      ba: 6174         	<unknown>
      bc: 0062         	c.slli	zero, 0x18
      be: 732e         	<unknown>
      c0: 7274         	<unknown>
      c2: 6174         	<unknown>
      c4: 0062         	c.slli	zero, 0x18

Disassembly of section .strtab:

00000000 <.strtab>:
       0: 6b00         	<unknown>
       2: 7265         	lui	tp, 0xffff9
       4: 656e         	<unknown>
       6: 2e6c         	<unknown>
       8: 78240063     	beq	s0, sp, 0x788 <.debug_line+0x788>
       c: 2400         	<unknown>
       e: 0078         	addi	a4, sp, 0xc
      10: 6424         	<unknown>
      12: 2400         	<unknown>
      14: 0064         	addi	s1, sp, 0xc
      16: 6424         	<unknown>
      18: 2400         	<unknown>
      1a: 0064         	addi	s1, sp, 0xc
      1c: 6424         	<unknown>
      1e: 2400         	<unknown>
      20: 0064         	addi	s1, sp, 0xc
      22: 6424         	<unknown>
      24: 2400         	<unknown>
      26: 0064         	addi	s1, sp, 0xc
      28: 6424         	<unknown>
      2a: 2400         	<unknown>
      2c: 0064         	addi	s1, sp, 0xc
      2e: 6424         	<unknown>
      30: 2400         	<unknown>
      32: 0064         	addi	s1, sp, 0xc
      34: 7270         	<unknown>
      36: 6e69         	lui	t3, 0x1a
      38: 5f74         	lw	a3, 0x7c(a4)
      3a: 69727473     	csrrci	s0, 0x697, 0x4
      3e: 676e         	<unknown>
      40: 7000         	<unknown>
      42: 7475         	lui	s0, 0xffffd
      44: 72616863     	bltu	sp, t1, 0x774 <.debug_line+0x774>
      48: 7300         	<unknown>
      4a: 6962         	<unknown>
      4c: 635f 6c61 006c       	<unknown>
      52: 7270         	<unknown>
      54: 6e69         	lui	t3, 0x1a
      56: 5f74         	lw	a3, 0x7c(a4)
      58: 6568         	<unknown>
      5a: 0078         	addi	a4, sp, 0xc
      5c: 61656c63     	bltu	a0, s6, 0x674 <.debug_line+0x674>
      60: 5f72         	lw	t5, 0x3c(sp)
      62: 7362         	<unknown>
      64: 5f5f0073     	<unknown>
      68: 7362         	<unknown>
      6a: 5f5f0073     	<unknown>
      6e: 7362         	<unknown>
      70: 6e655f73     	csrrwi	t5, 0x6e6, 0xa
      74: 0064         	addi	s1, sp, 0xc
      76: 6f62         	<unknown>
      78: 5f00746f     	jal	s0, 0x7668 <.debug_line+0x7668>
      7c: 735f 6174 6b63       	<unknown>
      82: 745f 706f 6b00       	<unknown>
      88: 7265         	lui	tp, 0xffff9
      8a: 656e         	<unknown>
      8c: 5f6c         	lw	a1, 0x7c(a4)
      8e: 616d         	addi	sp, sp, 0xf0
      90: 6e69         	lui	t3, 0x1a
      92: 00           	<unknown>
